 Walking01_DDA3D_sfun

 Timestamp is 575b05b8 (Fri Jun 10 14:23:52 2016)

 Preferred load address is 0000000180000000

 Start         Length     Name                   Class
 0001:00000000 002fe9e4H .text                   CODE
 0001:002fe9f0 00000092H .text$x                 CODE
 0002:00000000 00000688H .idata$5                DATA
 0002:00000688 00000008H .CRT$XCA                DATA
 0002:00000690 00000008H .CRT$XCZ                DATA
 0002:00000698 00000008H .CRT$XIA                DATA
 0002:000006a0 00000008H .CRT$XIAA               DATA
 0002:000006a8 00000008H .CRT$XIZ                DATA
 0002:000006b0 00000e2cH .rdata                  DATA
 0002:000014e0 00000008H .rtc$IAA                DATA
 0002:000014e8 00000008H .rtc$IZZ                DATA
 0002:000014f0 00000008H .rtc$TAA                DATA
 0002:000014f8 00000008H .rtc$TZZ                DATA
 0002:00001500 00004884H .xdata                  DATA
 0002:00005d84 000000a0H .idata$2                DATA
 0002:00005e24 00000014H .idata$3                DATA
 0002:00005e38 00000688H .idata$4                DATA
 0002:000064c0 000012e6H .idata$6                DATA
 0002:000077b0 0000005aH .edata                  DATA
 0003:00000000 000d0088H .data                   DATA
 0003:000d0090 00000c78H .bss                    DATA
 0004:00000000 0000543cH .pdata                  DATA

  Address         Publics by Value              Rva+Base               Lib:Object

 0000:00000000       ___safe_se_handler_count   0000000000000000     <absolute>
 0000:00000000       ___safe_se_handler_table   0000000000000000     <absolute>
 0000:00000000       __ImageBase                0000000180000000     <linker-defined>
 0001:00000000       Walking01_DDA3D_initializer 0000000180001000 f   Walking01_DDA3D_sfun.obj
 0001:00000010       Walking01_DDA3D_terminator 0000000180001010 f   Walking01_DDA3D_sfun.obj
 0001:00000020       sf_Walking01_DDA3D_method_dispatcher 0000000180001020 f   Walking01_DDA3D_sfun.obj
 0001:000003e0       sf_Walking01_DDA3D_uses_exported_functions 00000001800013e0 f   Walking01_DDA3D_sfun.obj
 0001:00000420       sf_Walking01_DDA3D_process_testpoint_info_call 0000000180001420 f   Walking01_DDA3D_sfun.obj
 0001:00000660       sf_Walking01_DDA3D_process_check_sum_call 0000000180001660 f   Walking01_DDA3D_sfun.obj
 0001:00000cc0       sf_Walking01_DDA3D_autoinheritance_info 0000000180001cc0 f   Walking01_DDA3D_sfun.obj
 0001:000015e0       sf_Walking01_DDA3D_get_eml_resolved_functions_info 00000001800025e0 f   Walking01_DDA3D_sfun.obj
 0001:00001d50       sf_Walking01_DDA3D_third_party_uses_info 0000000180002d50 f   Walking01_DDA3D_sfun.obj
 0001:000023a0       sf_Walking01_DDA3D_jit_fallback_info 00000001800033a0 f   Walking01_DDA3D_sfun.obj
 0001:000029f0       sf_Walking01_DDA3D_updateBuildInfo_args_info 00000001800039f0 f   Walking01_DDA3D_sfun.obj
 0001:00003040       sf_Walking01_DDA3D_get_post_codegen_info 0000000180004040 f   Walking01_DDA3D_sfun.obj
 0001:00003670       Walking01_DDA3D_debug_initialize 0000000180004670 f   Walking01_DDA3D_sfun.obj
 0001:000036f0       Walking01_DDA3D_register_exported_symbols 00000001800046f0 f   Walking01_DDA3D_sfun.obj
 0001:00003700       load_Walking01_DDA3D_optimization_info 0000000180004700 f   Walking01_DDA3D_sfun.obj
 0001:00003750       unload_Walking01_DDA3D_optimization_info 0000000180004750 f   Walking01_DDA3D_sfun.obj
 0001:00003780       sf_c31_Walking01_DDA3D_get_eml_resolved_functions_info 0000000180004780 f   c31_Walking01_DDA3D.obj
 0001:00008be0       sf_c31_Walking01_DDA3D_get_check_sum 0000000180009be0 f   c31_Walking01_DDA3D.obj
 0001:00008c60       sf_c31_Walking01_DDA3D_get_autoinheritance_info 0000000180009c60 f   c31_Walking01_DDA3D.obj
 0001:00009210       sf_c31_Walking01_DDA3D_third_party_uses_info 000000018000a210 f   c31_Walking01_DDA3D.obj
 0001:00009240       sf_c31_Walking01_DDA3D_jit_fallback_info 000000018000a240 f   c31_Walking01_DDA3D.obj
 0001:00009310       sf_c31_Walking01_DDA3D_updateBuildInfo_args_info 000000018000a310 f   c31_Walking01_DDA3D.obj
 0001:00009340       sf_c31_Walking01_DDA3D_get_post_codegen_info 000000018000a340 f   c31_Walking01_DDA3D.obj
 0001:00009410       c31_Walking01_DDA3D_method_dispatcher 000000018000a410 f   c31_Walking01_DDA3D.obj
 0001:0000c220       sf_c33_Walking01_DDA3D_get_eml_resolved_functions_info 000000018000d220 f   c33_Walking01_DDA3D.obj
 0001:00012c90       sf_c33_Walking01_DDA3D_get_check_sum 0000000180013c90 f   c33_Walking01_DDA3D.obj
 0001:00012d10       sf_c33_Walking01_DDA3D_get_autoinheritance_info 0000000180013d10 f   c33_Walking01_DDA3D.obj
 0001:00013d00       sf_c33_Walking01_DDA3D_third_party_uses_info 0000000180014d00 f   c33_Walking01_DDA3D.obj
 0001:00013d30       sf_c33_Walking01_DDA3D_jit_fallback_info 0000000180014d30 f   c33_Walking01_DDA3D.obj
 0001:00013e00       sf_c33_Walking01_DDA3D_updateBuildInfo_args_info 0000000180014e00 f   c33_Walking01_DDA3D.obj
 0001:00013e30       sf_c33_Walking01_DDA3D_get_post_codegen_info 0000000180014e30 f   c33_Walking01_DDA3D.obj
 0001:00013f00       c33_Walking01_DDA3D_method_dispatcher 0000000180014f00 f   c33_Walking01_DDA3D.obj
 0001:0001f000       sf_c34_Walking01_DDA3D_get_eml_resolved_functions_info 0000000180020000 f   c34_Walking01_DDA3D.obj
 0001:0001f840       sf_c34_Walking01_DDA3D_get_check_sum 0000000180020840 f   c34_Walking01_DDA3D.obj
 0001:0001f8c0       sf_c34_Walking01_DDA3D_get_autoinheritance_info 00000001800208c0 f   c34_Walking01_DDA3D.obj
 0001:000208e0       sf_c34_Walking01_DDA3D_third_party_uses_info 00000001800218e0 f   c34_Walking01_DDA3D.obj
 0001:00020910       sf_c34_Walking01_DDA3D_jit_fallback_info 0000000180021910 f   c34_Walking01_DDA3D.obj
 0001:000209e0       sf_c34_Walking01_DDA3D_updateBuildInfo_args_info 00000001800219e0 f   c34_Walking01_DDA3D.obj
 0001:00020a10       sf_c34_Walking01_DDA3D_get_post_codegen_info 0000000180021a10 f   c34_Walking01_DDA3D.obj
 0001:00020ae0       sf_c34_Walking01_DDA3D_get_testpoint_info 0000000180021ae0 f   c34_Walking01_DDA3D.obj
 0001:00020af0       c34_Walking01_DDA3D_method_dispatcher 0000000180021af0 f   c34_Walking01_DDA3D.obj
 0001:0002a7b0       sf_c35_Walking01_DDA3D_get_eml_resolved_functions_info 000000018002b7b0 f   c35_Walking01_DDA3D.obj
 0001:0002bed0       sf_c35_Walking01_DDA3D_get_check_sum 000000018002ced0 f   c35_Walking01_DDA3D.obj
 0001:0002bf50       sf_c35_Walking01_DDA3D_get_autoinheritance_info 000000018002cf50 f   c35_Walking01_DDA3D.obj
 0001:0002c3b0       sf_c35_Walking01_DDA3D_third_party_uses_info 000000018002d3b0 f   c35_Walking01_DDA3D.obj
 0001:0002c3e0       sf_c35_Walking01_DDA3D_jit_fallback_info 000000018002d3e0 f   c35_Walking01_DDA3D.obj
 0001:0002c4b0       sf_c35_Walking01_DDA3D_updateBuildInfo_args_info 000000018002d4b0 f   c35_Walking01_DDA3D.obj
 0001:0002c4e0       sf_c35_Walking01_DDA3D_get_post_codegen_info 000000018002d4e0 f   c35_Walking01_DDA3D.obj
 0001:0002c5b0       c35_Walking01_DDA3D_method_dispatcher 000000018002d5b0 f   c35_Walking01_DDA3D.obj
 0001:0002eb40       sf_c36_Walking01_DDA3D_get_eml_resolved_functions_info 000000018002fb40 f   c36_Walking01_DDA3D.obj
 0001:00030260       sf_c36_Walking01_DDA3D_get_check_sum 0000000180031260 f   c36_Walking01_DDA3D.obj
 0001:000302e0       sf_c36_Walking01_DDA3D_get_autoinheritance_info 00000001800312e0 f   c36_Walking01_DDA3D.obj
 0001:00030740       sf_c36_Walking01_DDA3D_third_party_uses_info 0000000180031740 f   c36_Walking01_DDA3D.obj
 0001:00030770       sf_c36_Walking01_DDA3D_jit_fallback_info 0000000180031770 f   c36_Walking01_DDA3D.obj
 0001:00030840       sf_c36_Walking01_DDA3D_updateBuildInfo_args_info 0000000180031840 f   c36_Walking01_DDA3D.obj
 0001:00030870       sf_c36_Walking01_DDA3D_get_post_codegen_info 0000000180031870 f   c36_Walking01_DDA3D.obj
 0001:00030940       c36_Walking01_DDA3D_method_dispatcher 0000000180031940 f   c36_Walking01_DDA3D.obj
 0001:00032fc0       sf_c37_Walking01_DDA3D_get_eml_resolved_functions_info 0000000180033fc0 f   c37_Walking01_DDA3D.obj
 0001:000346e0       sf_c37_Walking01_DDA3D_get_check_sum 00000001800356e0 f   c37_Walking01_DDA3D.obj
 0001:00034760       sf_c37_Walking01_DDA3D_get_autoinheritance_info 0000000180035760 f   c37_Walking01_DDA3D.obj
 0001:00034bc0       sf_c37_Walking01_DDA3D_third_party_uses_info 0000000180035bc0 f   c37_Walking01_DDA3D.obj
 0001:00034bf0       sf_c37_Walking01_DDA3D_jit_fallback_info 0000000180035bf0 f   c37_Walking01_DDA3D.obj
 0001:00034cc0       sf_c37_Walking01_DDA3D_updateBuildInfo_args_info 0000000180035cc0 f   c37_Walking01_DDA3D.obj
 0001:00034cf0       sf_c37_Walking01_DDA3D_get_post_codegen_info 0000000180035cf0 f   c37_Walking01_DDA3D.obj
 0001:00034dc0       c37_Walking01_DDA3D_method_dispatcher 0000000180035dc0 f   c37_Walking01_DDA3D.obj
 0001:000374c0       sf_c38_Walking01_DDA3D_get_eml_resolved_functions_info 00000001800384c0 f   c38_Walking01_DDA3D.obj
 0001:00038be0       sf_c38_Walking01_DDA3D_get_check_sum 0000000180039be0 f   c38_Walking01_DDA3D.obj
 0001:00038c60       sf_c38_Walking01_DDA3D_get_autoinheritance_info 0000000180039c60 f   c38_Walking01_DDA3D.obj
 0001:000390c0       sf_c38_Walking01_DDA3D_third_party_uses_info 000000018003a0c0 f   c38_Walking01_DDA3D.obj
 0001:000390f0       sf_c38_Walking01_DDA3D_jit_fallback_info 000000018003a0f0 f   c38_Walking01_DDA3D.obj
 0001:000391c0       sf_c38_Walking01_DDA3D_updateBuildInfo_args_info 000000018003a1c0 f   c38_Walking01_DDA3D.obj
 0001:000391f0       sf_c38_Walking01_DDA3D_get_post_codegen_info 000000018003a1f0 f   c38_Walking01_DDA3D.obj
 0001:000392c0       c38_Walking01_DDA3D_method_dispatcher 000000018003a2c0 f   c38_Walking01_DDA3D.obj
 0001:0003ba30       sf_c39_Walking01_DDA3D_get_eml_resolved_functions_info 000000018003ca30 f   c39_Walking01_DDA3D.obj
 0001:0003e4f0       sf_c39_Walking01_DDA3D_get_check_sum 000000018003f4f0 f   c39_Walking01_DDA3D.obj
 0001:0003e570       sf_c39_Walking01_DDA3D_get_autoinheritance_info 000000018003f570 f   c39_Walking01_DDA3D.obj
 0001:0003e9d0       sf_c39_Walking01_DDA3D_third_party_uses_info 000000018003f9d0 f   c39_Walking01_DDA3D.obj
 0001:0003ea00       sf_c39_Walking01_DDA3D_jit_fallback_info 000000018003fa00 f   c39_Walking01_DDA3D.obj
 0001:0003ead0       sf_c39_Walking01_DDA3D_updateBuildInfo_args_info 000000018003fad0 f   c39_Walking01_DDA3D.obj
 0001:0003eb00       sf_c39_Walking01_DDA3D_get_post_codegen_info 000000018003fb00 f   c39_Walking01_DDA3D.obj
 0001:0003ebd0       c39_Walking01_DDA3D_method_dispatcher 000000018003fbd0 f   c39_Walking01_DDA3D.obj
 0001:00041e70       sf_c40_Walking01_DDA3D_get_eml_resolved_functions_info 0000000180042e70 f   c40_Walking01_DDA3D.obj
 0001:0004a640       sf_c40_Walking01_DDA3D_get_check_sum 000000018004b640 f   c40_Walking01_DDA3D.obj
 0001:0004a6c0       sf_c40_Walking01_DDA3D_get_autoinheritance_info 000000018004b6c0 f   c40_Walking01_DDA3D.obj
 0001:0004ab20       sf_c40_Walking01_DDA3D_third_party_uses_info 000000018004bb20 f   c40_Walking01_DDA3D.obj
 0001:0004ab50       sf_c40_Walking01_DDA3D_jit_fallback_info 000000018004bb50 f   c40_Walking01_DDA3D.obj
 0001:0004ac20       sf_c40_Walking01_DDA3D_updateBuildInfo_args_info 000000018004bc20 f   c40_Walking01_DDA3D.obj
 0001:0004ac50       sf_c40_Walking01_DDA3D_get_post_codegen_info 000000018004bc50 f   c40_Walking01_DDA3D.obj
 0001:0004ad20       c40_Walking01_DDA3D_method_dispatcher 000000018004bd20 f   c40_Walking01_DDA3D.obj
 0001:0004d7e0       sf_c41_Walking01_DDA3D_get_eml_resolved_functions_info 000000018004e7e0 f   c41_Walking01_DDA3D.obj
 0001:00055fb0       sf_c41_Walking01_DDA3D_get_check_sum 0000000180056fb0 f   c41_Walking01_DDA3D.obj
 0001:00056030       sf_c41_Walking01_DDA3D_get_autoinheritance_info 0000000180057030 f   c41_Walking01_DDA3D.obj
 0001:00056490       sf_c41_Walking01_DDA3D_third_party_uses_info 0000000180057490 f   c41_Walking01_DDA3D.obj
 0001:000564c0       sf_c41_Walking01_DDA3D_jit_fallback_info 00000001800574c0 f   c41_Walking01_DDA3D.obj
 0001:00056590       sf_c41_Walking01_DDA3D_updateBuildInfo_args_info 0000000180057590 f   c41_Walking01_DDA3D.obj
 0001:000565c0       sf_c41_Walking01_DDA3D_get_post_codegen_info 00000001800575c0 f   c41_Walking01_DDA3D.obj
 0001:00056690       c41_Walking01_DDA3D_method_dispatcher 0000000180057690 f   c41_Walking01_DDA3D.obj
 0001:00059050       sf_c42_Walking01_DDA3D_get_eml_resolved_functions_info 000000018005a050 f   c42_Walking01_DDA3D.obj
 0001:00061820       sf_c42_Walking01_DDA3D_get_check_sum 0000000180062820 f   c42_Walking01_DDA3D.obj
 0001:000618a0       sf_c42_Walking01_DDA3D_get_autoinheritance_info 00000001800628a0 f   c42_Walking01_DDA3D.obj
 0001:00061d00       sf_c42_Walking01_DDA3D_third_party_uses_info 0000000180062d00 f   c42_Walking01_DDA3D.obj
 0001:00061d30       sf_c42_Walking01_DDA3D_jit_fallback_info 0000000180062d30 f   c42_Walking01_DDA3D.obj
 0001:00061e00       sf_c42_Walking01_DDA3D_updateBuildInfo_args_info 0000000180062e00 f   c42_Walking01_DDA3D.obj
 0001:00061e30       sf_c42_Walking01_DDA3D_get_post_codegen_info 0000000180062e30 f   c42_Walking01_DDA3D.obj
 0001:00061f00       c42_Walking01_DDA3D_method_dispatcher 0000000180062f00 f   c42_Walking01_DDA3D.obj
 0001:000648d0       sf_c43_Walking01_DDA3D_get_eml_resolved_functions_info 00000001800658d0 f   c43_Walking01_DDA3D.obj
 0001:00064950       sf_c43_Walking01_DDA3D_get_check_sum 0000000180065950 f   c43_Walking01_DDA3D.obj
 0001:000649d0       sf_c43_Walking01_DDA3D_get_autoinheritance_info 00000001800659d0 f   c43_Walking01_DDA3D.obj
 0001:00065770       sf_c43_Walking01_DDA3D_third_party_uses_info 0000000180066770 f   c43_Walking01_DDA3D.obj
 0001:000657a0       sf_c43_Walking01_DDA3D_jit_fallback_info 00000001800667a0 f   c43_Walking01_DDA3D.obj
 0001:00065870       sf_c43_Walking01_DDA3D_updateBuildInfo_args_info 0000000180066870 f   c43_Walking01_DDA3D.obj
 0001:000658a0       sf_c43_Walking01_DDA3D_get_post_codegen_info 00000001800668a0 f   c43_Walking01_DDA3D.obj
 0001:00065970       sf_c43_Walking01_DDA3D_get_testpoint_info 0000000180066970 f   c43_Walking01_DDA3D.obj
 0001:00065980       c43_Walking01_DDA3D_method_dispatcher 0000000180066980 f   c43_Walking01_DDA3D.obj
 0001:00072b60       sf_c44_Walking01_DDA3D_get_eml_resolved_functions_info 0000000180073b60 f   c44_Walking01_DDA3D.obj
 0001:00072be0       sf_c44_Walking01_DDA3D_get_check_sum 0000000180073be0 f   c44_Walking01_DDA3D.obj
 0001:00072c60       sf_c44_Walking01_DDA3D_get_autoinheritance_info 0000000180073c60 f   c44_Walking01_DDA3D.obj
 0001:00073a00       sf_c44_Walking01_DDA3D_third_party_uses_info 0000000180074a00 f   c44_Walking01_DDA3D.obj
 0001:00073a30       sf_c44_Walking01_DDA3D_jit_fallback_info 0000000180074a30 f   c44_Walking01_DDA3D.obj
 0001:00073b00       sf_c44_Walking01_DDA3D_updateBuildInfo_args_info 0000000180074b00 f   c44_Walking01_DDA3D.obj
 0001:00073b30       sf_c44_Walking01_DDA3D_get_post_codegen_info 0000000180074b30 f   c44_Walking01_DDA3D.obj
 0001:00073c00       sf_c44_Walking01_DDA3D_get_testpoint_info 0000000180074c00 f   c44_Walking01_DDA3D.obj
 0001:00073c10       c44_Walking01_DDA3D_method_dispatcher 0000000180074c10 f   c44_Walking01_DDA3D.obj
 0001:00080e00       sf_c45_Walking01_DDA3D_get_eml_resolved_functions_info 0000000180081e00 f   c45_Walking01_DDA3D.obj
 0001:00080e80       sf_c45_Walking01_DDA3D_get_check_sum 0000000180081e80 f   c45_Walking01_DDA3D.obj
 0001:00080f00       sf_c45_Walking01_DDA3D_get_autoinheritance_info 0000000180081f00 f   c45_Walking01_DDA3D.obj
 0001:00081ca0       sf_c45_Walking01_DDA3D_third_party_uses_info 0000000180082ca0 f   c45_Walking01_DDA3D.obj
 0001:00081cd0       sf_c45_Walking01_DDA3D_jit_fallback_info 0000000180082cd0 f   c45_Walking01_DDA3D.obj
 0001:00081da0       sf_c45_Walking01_DDA3D_updateBuildInfo_args_info 0000000180082da0 f   c45_Walking01_DDA3D.obj
 0001:00081dd0       sf_c45_Walking01_DDA3D_get_post_codegen_info 0000000180082dd0 f   c45_Walking01_DDA3D.obj
 0001:00081ea0       sf_c45_Walking01_DDA3D_get_testpoint_info 0000000180082ea0 f   c45_Walking01_DDA3D.obj
 0001:00081eb0       c45_Walking01_DDA3D_method_dispatcher 0000000180082eb0 f   c45_Walking01_DDA3D.obj
 0001:0008f0a0       sf_c46_Walking01_DDA3D_get_eml_resolved_functions_info 00000001800900a0 f   c46_Walking01_DDA3D.obj
 0001:0008f120       sf_c46_Walking01_DDA3D_get_check_sum 0000000180090120 f   c46_Walking01_DDA3D.obj
 0001:0008f1a0       sf_c46_Walking01_DDA3D_get_autoinheritance_info 00000001800901a0 f   c46_Walking01_DDA3D.obj
 0001:0008ff40       sf_c46_Walking01_DDA3D_third_party_uses_info 0000000180090f40 f   c46_Walking01_DDA3D.obj
 0001:0008ff70       sf_c46_Walking01_DDA3D_jit_fallback_info 0000000180090f70 f   c46_Walking01_DDA3D.obj
 0001:00090040       sf_c46_Walking01_DDA3D_updateBuildInfo_args_info 0000000180091040 f   c46_Walking01_DDA3D.obj
 0001:00090070       sf_c46_Walking01_DDA3D_get_post_codegen_info 0000000180091070 f   c46_Walking01_DDA3D.obj
 0001:00090140       sf_c46_Walking01_DDA3D_get_testpoint_info 0000000180091140 f   c46_Walking01_DDA3D.obj
 0001:00090150       c46_Walking01_DDA3D_method_dispatcher 0000000180091150 f   c46_Walking01_DDA3D.obj
 0001:0009d340       sf_c47_Walking01_DDA3D_get_eml_resolved_functions_info 000000018009e340 f   c47_Walking01_DDA3D.obj
 0001:0009db80       sf_c47_Walking01_DDA3D_get_check_sum 000000018009eb80 f   c47_Walking01_DDA3D.obj
 0001:0009dc00       sf_c47_Walking01_DDA3D_get_autoinheritance_info 000000018009ec00 f   c47_Walking01_DDA3D.obj
 0001:0009eae0       sf_c47_Walking01_DDA3D_third_party_uses_info 000000018009fae0 f   c47_Walking01_DDA3D.obj
 0001:0009eb10       sf_c47_Walking01_DDA3D_jit_fallback_info 000000018009fb10 f   c47_Walking01_DDA3D.obj
 0001:0009ebe0       sf_c47_Walking01_DDA3D_updateBuildInfo_args_info 000000018009fbe0 f   c47_Walking01_DDA3D.obj
 0001:0009ec10       sf_c47_Walking01_DDA3D_get_post_codegen_info 000000018009fc10 f   c47_Walking01_DDA3D.obj
 0001:0009ece0       sf_c47_Walking01_DDA3D_get_testpoint_info 000000018009fce0 f   c47_Walking01_DDA3D.obj
 0001:0009ecf0       c47_Walking01_DDA3D_method_dispatcher 000000018009fcf0 f   c47_Walking01_DDA3D.obj
 0001:000a73a0       sf_c48_Walking01_DDA3D_get_eml_resolved_functions_info 00000001800a83a0 f   c48_Walking01_DDA3D.obj
 0001:000a7420       sf_c48_Walking01_DDA3D_get_check_sum 00000001800a8420 f   c48_Walking01_DDA3D.obj
 0001:000a74a0       sf_c48_Walking01_DDA3D_get_autoinheritance_info 00000001800a84a0 f   c48_Walking01_DDA3D.obj
 0001:000a7900       sf_c48_Walking01_DDA3D_third_party_uses_info 00000001800a8900 f   c48_Walking01_DDA3D.obj
 0001:000a7930       sf_c48_Walking01_DDA3D_jit_fallback_info 00000001800a8930 f   c48_Walking01_DDA3D.obj
 0001:000a7a00       sf_c48_Walking01_DDA3D_updateBuildInfo_args_info 00000001800a8a00 f   c48_Walking01_DDA3D.obj
 0001:000a7a30       sf_c48_Walking01_DDA3D_get_post_codegen_info 00000001800a8a30 f   c48_Walking01_DDA3D.obj
 0001:000a7b00       c48_Walking01_DDA3D_method_dispatcher 00000001800a8b00 f   c48_Walking01_DDA3D.obj
 0001:000a9fc0       sf_c49_Walking01_DDA3D_get_eml_resolved_functions_info 00000001800aafc0 f   c49_Walking01_DDA3D.obj
 0001:000b2790       sf_c49_Walking01_DDA3D_get_check_sum 00000001800b3790 f   c49_Walking01_DDA3D.obj
 0001:000b2810       sf_c49_Walking01_DDA3D_get_autoinheritance_info 00000001800b3810 f   c49_Walking01_DDA3D.obj
 0001:000b37f0       sf_c49_Walking01_DDA3D_third_party_uses_info 00000001800b47f0 f   c49_Walking01_DDA3D.obj
 0001:000b3820       sf_c49_Walking01_DDA3D_jit_fallback_info 00000001800b4820 f   c49_Walking01_DDA3D.obj
 0001:000b38f0       sf_c49_Walking01_DDA3D_updateBuildInfo_args_info 00000001800b48f0 f   c49_Walking01_DDA3D.obj
 0001:000b3920       sf_c49_Walking01_DDA3D_get_post_codegen_info 00000001800b4920 f   c49_Walking01_DDA3D.obj
 0001:000b39f0       c49_Walking01_DDA3D_method_dispatcher 00000001800b49f0 f   c49_Walking01_DDA3D.obj
 0001:000befb0       sf_c50_Walking01_DDA3D_get_eml_resolved_functions_info 00000001800bffb0 f   c50_Walking01_DDA3D.obj
 0001:000c01f0       sf_c50_Walking01_DDA3D_get_check_sum 00000001800c11f0 f   c50_Walking01_DDA3D.obj
 0001:000c0270       sf_c50_Walking01_DDA3D_get_autoinheritance_info 00000001800c1270 f   c50_Walking01_DDA3D.obj
 0001:000c0960       sf_c50_Walking01_DDA3D_third_party_uses_info 00000001800c1960 f   c50_Walking01_DDA3D.obj
 0001:000c0990       sf_c50_Walking01_DDA3D_jit_fallback_info 00000001800c1990 f   c50_Walking01_DDA3D.obj
 0001:000c0a60       sf_c50_Walking01_DDA3D_updateBuildInfo_args_info 00000001800c1a60 f   c50_Walking01_DDA3D.obj
 0001:000c0a90       sf_c50_Walking01_DDA3D_get_post_codegen_info 00000001800c1a90 f   c50_Walking01_DDA3D.obj
 0001:000c0b60       c50_Walking01_DDA3D_method_dispatcher 00000001800c1b60 f   c50_Walking01_DDA3D.obj
 0001:000c5df0       sf_c56_Walking01_DDA3D_get_eml_resolved_functions_info 00000001800c6df0 f   c56_Walking01_DDA3D.obj
 0001:000c9ec0       sf_c56_Walking01_DDA3D_get_check_sum 00000001800caec0 f   c56_Walking01_DDA3D.obj
 0001:000c9f40       sf_c56_Walking01_DDA3D_get_autoinheritance_info 00000001800caf40 f   c56_Walking01_DDA3D.obj
 0001:000cac90       sf_c56_Walking01_DDA3D_third_party_uses_info 00000001800cbc90 f   c56_Walking01_DDA3D.obj
 0001:000cacc0       sf_c56_Walking01_DDA3D_jit_fallback_info 00000001800cbcc0 f   c56_Walking01_DDA3D.obj
 0001:000cad90       sf_c56_Walking01_DDA3D_updateBuildInfo_args_info 00000001800cbd90 f   c56_Walking01_DDA3D.obj
 0001:000cadc0       sf_c56_Walking01_DDA3D_get_post_codegen_info 00000001800cbdc0 f   c56_Walking01_DDA3D.obj
 0001:000cae90       c56_Walking01_DDA3D_method_dispatcher 00000001800cbe90 f   c56_Walking01_DDA3D.obj
 0001:000d8250       sf_c57_Walking01_DDA3D_get_eml_resolved_functions_info 00000001800d9250 f   c57_Walking01_DDA3D.obj
 0001:000f5440       sf_c57_Walking01_DDA3D_get_check_sum 00000001800f6440 f   c57_Walking01_DDA3D.obj
 0001:000f54c0       sf_c57_Walking01_DDA3D_get_autoinheritance_info 00000001800f64c0 f   c57_Walking01_DDA3D.obj
 0001:000f5e30       sf_c57_Walking01_DDA3D_third_party_uses_info 00000001800f6e30 f   c57_Walking01_DDA3D.obj
 0001:000f5e60       sf_c57_Walking01_DDA3D_jit_fallback_info 00000001800f6e60 f   c57_Walking01_DDA3D.obj
 0001:000f5f30       sf_c57_Walking01_DDA3D_updateBuildInfo_args_info 00000001800f6f30 f   c57_Walking01_DDA3D.obj
 0001:000f5f60       sf_c57_Walking01_DDA3D_get_post_codegen_info 00000001800f6f60 f   c57_Walking01_DDA3D.obj
 0001:000f6030       c57_Walking01_DDA3D_method_dispatcher 00000001800f7030 f   c57_Walking01_DDA3D.obj
 0001:0011ee20       sf_c58_Walking01_DDA3D_get_eml_resolved_functions_info 000000018011fe20 f   c58_Walking01_DDA3D.obj
 0001:001513b0       sf_c58_Walking01_DDA3D_get_check_sum 00000001801523b0 f   c58_Walking01_DDA3D.obj
 0001:00151430       sf_c58_Walking01_DDA3D_get_autoinheritance_info 0000000180152430 f   c58_Walking01_DDA3D.obj
 0001:00153c90       sf_c58_Walking01_DDA3D_third_party_uses_info 0000000180154c90 f   c58_Walking01_DDA3D.obj
 0001:00153cc0       sf_c58_Walking01_DDA3D_jit_fallback_info 0000000180154cc0 f   c58_Walking01_DDA3D.obj
 0001:00153d90       sf_c58_Walking01_DDA3D_updateBuildInfo_args_info 0000000180154d90 f   c58_Walking01_DDA3D.obj
 0001:00153dc0       sf_c58_Walking01_DDA3D_get_post_codegen_info 0000000180154dc0 f   c58_Walking01_DDA3D.obj
 0001:00153e90       c58_Walking01_DDA3D_method_dispatcher 0000000180154e90 f   c58_Walking01_DDA3D.obj
 0001:001bf130       sf_c59_Walking01_DDA3D_get_eml_resolved_functions_info 00000001801c0130 f   c59_Walking01_DDA3D.obj
 0001:00202180       sf_c59_Walking01_DDA3D_get_check_sum 0000000180203180 f   c59_Walking01_DDA3D.obj
 0001:00202200       sf_c59_Walking01_DDA3D_get_autoinheritance_info 0000000180203200 f   c59_Walking01_DDA3D.obj
 0001:00204180       sf_c59_Walking01_DDA3D_third_party_uses_info 0000000180205180 f   c59_Walking01_DDA3D.obj
 0001:002041b0       sf_c59_Walking01_DDA3D_jit_fallback_info 00000001802051b0 f   c59_Walking01_DDA3D.obj
 0001:00204280       sf_c59_Walking01_DDA3D_updateBuildInfo_args_info 0000000180205280 f   c59_Walking01_DDA3D.obj
 0001:002042b0       sf_c59_Walking01_DDA3D_get_post_codegen_info 00000001802052b0 f   c59_Walking01_DDA3D.obj
 0001:00204380       sf_c59_Walking01_DDA3D_get_testpoint_info 0000000180205380 f   c59_Walking01_DDA3D.obj
 0001:00204390       c59_Walking01_DDA3D_method_dispatcher 0000000180205390 f   c59_Walking01_DDA3D.obj
 0001:002b0b50       sf_c60_Walking01_DDA3D_get_eml_resolved_functions_info 00000001802b1b50 f   c60_Walking01_DDA3D.obj
 0001:002c8500       sf_c60_Walking01_DDA3D_get_check_sum 00000001802c9500 f   c60_Walking01_DDA3D.obj
 0001:002c8580       sf_c60_Walking01_DDA3D_get_autoinheritance_info 00000001802c9580 f   c60_Walking01_DDA3D.obj
 0001:002c97f0       sf_c60_Walking01_DDA3D_third_party_uses_info 00000001802ca7f0 f   c60_Walking01_DDA3D.obj
 0001:002c9820       sf_c60_Walking01_DDA3D_jit_fallback_info 00000001802ca820 f   c60_Walking01_DDA3D.obj
 0001:002c98f0       sf_c60_Walking01_DDA3D_updateBuildInfo_args_info 00000001802ca8f0 f   c60_Walking01_DDA3D.obj
 0001:002c9920       sf_c60_Walking01_DDA3D_get_post_codegen_info 00000001802ca920 f   c60_Walking01_DDA3D.obj
 0001:002c99f0       c60_Walking01_DDA3D_method_dispatcher 00000001802ca9f0 f   c60_Walking01_DDA3D.obj
 0001:002d5780       sf_c92_Walking01_DDA3D_get_eml_resolved_functions_info 00000001802d6780 f   c92_Walking01_DDA3D.obj
 0001:002dd310       sf_c92_Walking01_DDA3D_get_check_sum 00000001802de310 f   c92_Walking01_DDA3D.obj
 0001:002dd390       sf_c92_Walking01_DDA3D_get_autoinheritance_info 00000001802de390 f   c92_Walking01_DDA3D.obj
 0001:002dda80       sf_c92_Walking01_DDA3D_third_party_uses_info 00000001802dea80 f   c92_Walking01_DDA3D.obj
 0001:002ddab0       sf_c92_Walking01_DDA3D_jit_fallback_info 00000001802deab0 f   c92_Walking01_DDA3D.obj
 0001:002ddb80       sf_c92_Walking01_DDA3D_updateBuildInfo_args_info 00000001802deb80 f   c92_Walking01_DDA3D.obj
 0001:002ddbb0       sf_c92_Walking01_DDA3D_get_post_codegen_info 00000001802debb0 f   c92_Walking01_DDA3D.obj
 0001:002ddc80       c92_Walking01_DDA3D_method_dispatcher 00000001802dec80 f   c92_Walking01_DDA3D.obj
 0001:002e15f0       sf_c93_Walking01_DDA3D_get_eml_resolved_functions_info 00000001802e25f0 f   c93_Walking01_DDA3D.obj
 0001:002ef820       sf_c93_Walking01_DDA3D_get_check_sum 00000001802f0820 f   c93_Walking01_DDA3D.obj
 0001:002ef8a0       sf_c93_Walking01_DDA3D_get_autoinheritance_info 00000001802f08a0 f   c93_Walking01_DDA3D.obj
 0001:002efe60       sf_c93_Walking01_DDA3D_third_party_uses_info 00000001802f0e60 f   c93_Walking01_DDA3D.obj
 0001:002efe90       sf_c93_Walking01_DDA3D_jit_fallback_info 00000001802f0e90 f   c93_Walking01_DDA3D.obj
 0001:002eff60       sf_c93_Walking01_DDA3D_updateBuildInfo_args_info 00000001802f0f60 f   c93_Walking01_DDA3D.obj
 0001:002eff90       sf_c93_Walking01_DDA3D_get_post_codegen_info 00000001802f0f90 f   c93_Walking01_DDA3D.obj
 0001:002f0060       c93_Walking01_DDA3D_method_dispatcher 00000001802f1060 f   c93_Walking01_DDA3D.obj
 0001:002f7160       sf_process_check_sum_call  00000001802f8160 f   Walking01_DDA3D_sfun_registry.obj
 0001:002f71b0       sf_process_machine_uses_exported_functions_call 00000001802f81b0 f   Walking01_DDA3D_sfun_registry.obj
 0001:002f7300       sf_process_testpoint_info_call 00000001802f8300 f   Walking01_DDA3D_sfun_registry.obj
 0001:002f7350       sf_process_autoinheritance_call 00000001802f8350 f   Walking01_DDA3D_sfun_registry.obj
 0001:002f74f0       sf_process_get_third_party_uses_info_call 00000001802f84f0 f   Walking01_DDA3D_sfun_registry.obj
 0001:002f7690       sf_process_get_jit_fallback_info_call 00000001802f8690 f   Walking01_DDA3D_sfun_registry.obj
 0001:002f7830       sf_process_get_updateBuildInfo_args_info_call 00000001802f8830 f   Walking01_DDA3D_sfun_registry.obj
 0001:002f79d0       sf_process_get_eml_resolved_functions_info_call 00000001802f89d0 f   Walking01_DDA3D_sfun_registry.obj
 0001:002f7b50       sf_process_get_post_codegen_info 00000001802f8b50 f   Walking01_DDA3D_sfun_registry.obj
 0001:002f7ca0       sf_mex_unlock_call         00000001802f8ca0 f   Walking01_DDA3D_sfun_registry.obj
 0001:002f7d50       sf_machine_global_initializer_called 00000001802f8d50 f   Walking01_DDA3D_sfun_registry.obj
 0001:002f7d80       sf_machine_global_method_dispatcher 00000001802f8d80 f   Walking01_DDA3D_sfun_registry.obj
 0001:002f7de0       sf_machine_global_terminator 00000001802f8de0 f   Walking01_DDA3D_sfun_registry.obj
 0001:002f7e30       sf_register_machine_exported_symbols 00000001802f8e30 f   Walking01_DDA3D_sfun_registry.obj
 0001:002f7e50       callCustomFcn              00000001802f8e50 f   Walking01_DDA3D_sfun_registry.obj
 0001:002f7e60       sf_machine_global_initializer 00000001802f8e60 f   Walking01_DDA3D_sfun_registry.obj
 0001:002f7ee0       mdlGetSimState             00000001802f8ee0 f   Walking01_DDA3D_sfun_registry.obj
 0001:002f7f60       mdlSetSimState             00000001802f8f60 f   Walking01_DDA3D_sfun_registry.obj
 0001:002f7fa0       _ssSetStateAbsTol          00000001802f8fa0 f   Walking01_DDA3D_sfun_registry.obj
 0001:002f8080       _ssGetAbsTol               00000001802f9080 f   Walking01_DDA3D_sfun_registry.obj
 0001:002f80f0       _ssSetInputPortMatrixDimensions 00000001802f90f0 f   Walking01_DDA3D_sfun_registry.obj
 0001:002f8200       _ssSetOutputPortMatrixDimensions 00000001802f9200 f   Walking01_DDA3D_sfun_registry.obj
 0001:002f8310       _ssSetInputPortVectorDimension 00000001802f9310 f   Walking01_DDA3D_sfun_registry.obj
 0001:002f83e0       _ssSetOutputPortVectorDimension 00000001802f93e0 f   Walking01_DDA3D_sfun_registry.obj
 0001:002f84b0       ssIsRunTimeParamTunable    00000001802f94b0 f   Walking01_DDA3D_sfun_registry.obj
 0001:002f8520       ssGetSFuncBlockHandle      00000001802f9520 f   Walking01_DDA3D_sfun_registry.obj
 0001:002f8590       _ssGetCurrentInputPortWidth 00000001802f9590 f   Walking01_DDA3D_sfun_registry.obj
 0001:002f86b0       _ssGetCurrentOutputPortWidth 00000001802f96b0 f   Walking01_DDA3D_sfun_registry.obj
 0001:002f87d0       _ssGetCallSystemNumFcnCallDestinations 00000001802f97d0 f   Walking01_DDA3D_sfun_registry.obj
 0001:002f8840       ssWarning                  00000001802f9840 f   Walking01_DDA3D_sfun_registry.obj
 0001:002f8950       ssGetIsZeroCrossControlDisabled 00000001802f9950 f   Walking01_DDA3D_sfun_registry.obj
 0001:002f89c0       ssSetIsInputPortUsedForContZcSignal 00000001802f99c0 f   Walking01_DDA3D_sfun_registry.obj
 0001:002f8a30       ssSetZcSignalIsZcElementDisc 00000001802f9a30 f   Walking01_DDA3D_sfun_registry.obj
 0001:002f8ae0       ssSetZcSignalName          00000001802f9ae0 f   Walking01_DDA3D_sfun_registry.obj
 0001:002f8b50       ssSetZcSignalWidth         00000001802f9b50 f   Walking01_DDA3D_sfun_registry.obj
 0001:002f8bc0       ssSetZcSignalZcEventType   00000001802f9bc0 f   Walking01_DDA3D_sfun_registry.obj
 0001:002f8c30       ssSetZcSignalType          00000001802f9c30 f   Walking01_DDA3D_sfun_registry.obj
 0001:002f8ca0       ssSetZcSignalZcTol         00000001802f9ca0 f   Walking01_DDA3D_sfun_registry.obj
 0001:002f8d10       ssSetZcSignalNeedsEventNotification 00000001802f9d10 f   Walking01_DDA3D_sfun_registry.obj
 0001:002f8d80       ssCreateAndAddZcSignalInfo 00000001802f9d80 f   Walking01_DDA3D_sfun_registry.obj
 0001:002f8df0       ssCloneAndAddZcSignalInfo  00000001802f9df0 f   Walking01_DDA3D_sfun_registry.obj
 0001:002f8e60       ssGetNumZcSignals          00000001802f9e60 f   Walking01_DDA3D_sfun_registry.obj
 0001:002f8ed0       ssGetZcSignalVector        00000001802f9ed0 f   Walking01_DDA3D_sfun_registry.obj
 0001:002f8f40       ssGetZcSignalZcEvents      00000001802f9f40 f   Walking01_DDA3D_sfun_registry.obj
 0001:002f8fb0       ssGetZcSignalName          00000001802f9fb0 f   Walking01_DDA3D_sfun_registry.obj
 0001:002f9020       ssGetZcSignalWidth         00000001802fa020 f   Walking01_DDA3D_sfun_registry.obj
 0001:002f9090       ssGetZcSignalZcEventType   00000001802fa090 f   Walking01_DDA3D_sfun_registry.obj
 0001:002f9100       ssGetZcSignalType          00000001802fa100 f   Walking01_DDA3D_sfun_registry.obj
 0001:002f9170       ssGetZcSignalZcTol         00000001802fa170 f   Walking01_DDA3D_sfun_registry.obj
 0001:002f91f0       ssGetZcSignalNeedsEventNotification 00000001802fa1f0 f   Walking01_DDA3D_sfun_registry.obj
 0001:002f9260       ssGetZcSignalIsZcElementDisc 00000001802fa260 f   Walking01_DDA3D_sfun_registry.obj
 0001:002f9300       ssGetIsInputPortElementContinuous 00000001802fa300 f   Walking01_DDA3D_sfun_registry.obj
 0001:002f93a0       _ssGetInputPortSignalPtrsFcn 00000001802fa3a0 f   Walking01_DDA3D_sfun_registry.obj
 0001:002f9660       _ssGetInputPortSignalFcn   00000001802fa660 f   Walking01_DDA3D_sfun_registry.obj
 0001:002f9880       _ssSetInputPortDirectFeedThroughFcn 00000001802fa880 f   Walking01_DDA3D_sfun_registry.obj
 0001:002f99e0       _ssSetInputPortReusableFcn 00000001802fa9e0 f   Walking01_DDA3D_sfun_registry.obj
 0001:002f9ad0       _ssSetOutputPortReusableFcn 00000001802faad0 f   Walking01_DDA3D_sfun_registry.obj
 0001:002f9bb0       ssGetDTypeIdFromMxArray    00000001802fabb0 f   Walking01_DDA3D_sfun_registry.obj
 0001:002f9cd0       ssWriteRTWStr              00000001802facd0 f   Walking01_DDA3D_sfun_registry.obj
 0001:002f9d30       ssWriteRTWMxVectParam      00000001802fad30 f   Walking01_DDA3D_sfun_registry.obj
 0001:002f9d90       ssWriteRTWMx2dMatParam     00000001802fad90 f   Walking01_DDA3D_sfun_registry.obj
 0001:002f9e10       ssWriteRTWNameValuePair    00000001802fae10 f   Walking01_DDA3D_sfun_registry.obj
 0001:002fa300       ssWriteRTWParameters       00000001802fb300 f   Walking01_DDA3D_sfun_registry.obj
 0001:002fa900       ssWriteRTWParamSettings    00000001802fb900 f   Walking01_DDA3D_sfun_registry.obj
 0001:002fafd0       ssWriteRTWWorkVect         00000001802fbfd0 f   Walking01_DDA3D_sfun_registry.obj
 0001:002fb4d0       mexFunction                00000001802fc4d0 f   Walking01_DDA3D_sfun_registry.obj
 0001:002fda20       ProcessMexSfunctionEveryCall 00000001802fea20 f   Walking01_DDA3D_sfun_registry.obj
 0001:002fdba2       sf_debug_set_machine_data_thresholds 00000001802feba2 f   sf_runtime:sf_runtime.dll
 0001:002fdba8       sf_debug_set_machine_event_thresholds 00000001802feba8 f   sf_runtime:sf_runtime.dll
 0001:002fdbae       sf_debug_initialize_machine 00000001802febae f   sf_runtime:sf_runtime.dll
 0001:002fdbb4       sf_load_rtw_optimization_info 00000001802febb4 f   sf_runtime:sf_runtime.dll
 0001:002fdbba       sf_mex_emlrtNameCapturePostProcessR2012a 00000001802febba f   sf_runtime:sf_runtime.dll
 0001:002fdbc0       sf_mex_assign              00000001802febc0 f   sf_runtime:sf_runtime.dll
 0001:002fdbc6       sf_mex_createstruct        00000001802febc6 f   sf_runtime:sf_runtime.dll
 0001:002fdbcc       sf_mex_destroy             00000001802febcc f   sf_runtime:sf_runtime.dll
 0001:002fdbd2       sf_mex_duplicatearraysafe  00000001802febd2 f   sf_runtime:sf_runtime.dll
 0001:002fdbd8       sf_mex_createcellmatrix    00000001802febd8 f   sf_runtime:sf_runtime.dll
 0001:002fdbde       sf_mex_addfield            00000001802febde f   sf_runtime:sf_runtime.dll
 0001:002fdbe4       sf_mex_create              00000001802febe4 f   sf_runtime:sf_runtime.dll
 0001:002fdbea       sf_mex_error_message       00000001802febea f   sf_runtime:sf_runtime.dll
 0001:002fdbf0       sf_set_rtw_dwork_info      00000001802febf0 f   sf_runtime:sf_runtime.dll
 0001:002fdbf6       sf_mark_chart_reusable_outputs 00000001802febf6 f   sf_runtime:sf_runtime.dll
 0001:002fdbfc       sf_mark_chart_expressionable_inputs 00000001802febfc f   sf_runtime:sf_runtime.dll
 0001:002fdc02       sf_update_buildInfo        00000001802fec02 f   sf_runtime:sf_runtime.dll
 0001:002fdc08       sf_rtw_info_uint_prop      00000001802fec08 f   sf_runtime:sf_runtime.dll
 0001:002fdc0e       sf_is_chart_inlinable      00000001802fec0e f   sf_runtime:sf_runtime.dll
 0001:002fdc14       sim_mode_is_external       00000001802fec14 f   sf_runtime:sf_runtime.dll
 0001:002fdc1a       sim_mode_is_rtw_gen        00000001802fec1a f   sf_runtime:sf_runtime.dll
 0001:002fdc20       ssGetOutputPortSignal_wrapper 00000001802fec20 f   sf_runtime:sf_runtime.dll
 0001:002fdc26       ssGetInputPortSignal_wrapper 00000001802fec26 f   sf_runtime:sf_runtime.dll
 0001:002fdc2c       sf_mex_decode_encoded_mx_struct_array 00000001802fec2c f   sf_runtime:sf_runtime.dll
 0001:002fdc32       sf_debug_reset_current_state_configuration 00000001802fec32 f   sf_runtime:sf_runtime.dll
 0001:002fdc38       sf_debug_set_instance_data_value_ptr 00000001802fec38 f   sf_runtime:sf_runtime.dll
 0001:002fdc3e       sf_debug_set_chart_data_compiled_props 00000001802fec3e f   sf_runtime:sf_runtime.dll
 0001:002fdc44       cv_eml_init_fcn            00000001802fec44 f   sf_runtime:sf_runtime.dll
 0001:002fdc4a       cv_eml_init_script         00000001802fec4a f   sf_runtime:sf_runtime.dll
 0001:002fdc50       sf_debug_cv_init_trans     00000001802fec50 f   sf_runtime:sf_runtime.dll
 0001:002fdc56       sf_debug_cv_init_state     00000001802fec56 f   sf_runtime:sf_runtime.dll
 0001:002fdc5c       sf_debug_cv_init_chart     00000001802fec5c f   sf_runtime:sf_runtime.dll
 0001:002fdc62       sf_debug_set_chart_decomposition 00000001802fec62 f   sf_runtime:sf_runtime.dll
 0001:002fdc68       sf_debug_set_chart_substate_count 00000001802fec68 f   sf_runtime:sf_runtime.dll
 0001:002fdc6e       sf_debug_set_chart_state_info 00000001802fec6e f   sf_runtime:sf_runtime.dll
 0001:002fdc74       sf_debug_set_chart_data_props 00000001802fec74 f   sf_runtime:sf_runtime.dll
 0001:002fdc7a       sf_debug_set_chart_event_thresholds 00000001802fec7a f   sf_runtime:sf_runtime.dll
 0001:002fdc80       sf_debug_set_chart_disable_implicit_casting 00000001802fec80 f   sf_runtime:sf_runtime.dll
 0001:002fdc86       sf_debug_initialize_chart  00000001802fec86 f   sf_runtime:sf_runtime.dll
 0001:002fdc8c       sf_mex_dup                 00000001802fec8c f   sf_runtime:sf_runtime.dll
 0001:002fdc92       sf_mex_import              00000001802fec92 f   sf_runtime:sf_runtime.dll
 0001:002fdc98       sf_get_time                00000001802fec98 f   sf_runtime:sf_runtime.dll
 0001:002fdc9e       sf_debug_check_for_state_inconsistency 00000001802fec9e f   sf_runtime:sf_runtime.dll
 0001:002fdca4       sf_debug_symbol_scope_pop  00000001802feca4 f   sf_runtime:sf_runtime.dll
 0001:002fdcaa       sf_debug_data_range_wrapper 00000001802fecaa f   sf_runtime:sf_runtime.dll
 0001:002fdcb0       sf_debug_call              00000001802fecb0 f   sf_runtime:sf_runtime.dll
 0001:002fdcb6       sf_debug_symbol_scope_push 00000001802fecb6 f   sf_runtime:sf_runtime.dll
 0001:002fdcbc       eml_debug_line_call        00000001802fecbc f   sf_runtime:sf_runtime.dll
 0001:002fdcc2       cv_eml_eval                00000001802fecc2 f   sf_runtime:sf_runtime.dll
 0001:002fdcc8       sf_debug_symbol_scope_add_eml 00000001802fecc8 f   sf_runtime:sf_runtime.dll
 0001:002fdcce       sf_debug_symbol_scope_add_eml_importable 00000001802fecce f   sf_runtime:sf_runtime.dll
 0001:002fdcd4       sf_debug_symbol_scope_push_eml 00000001802fecd4 f   sf_runtime:sf_runtime.dll
 0001:002fdcda       sf_mex_setcell             00000001802fecda f   sf_runtime:sf_runtime.dll
 0001:002fdce0       sf_mex_getcell             00000001802fece0 f   sf_runtime:sf_runtime.dll
 0001:002fdce6       sf_clear_rtw_identifier    00000001802fece6 f   sf_runtime:sf_runtime.dll
 0001:002fdcec       cv_script_init_fcn         00000001802fecec f   sf_runtime:sf_runtime.dll
 0001:002fdcf2       cv_script_init_script      00000001802fecf2 f   sf_runtime:sf_runtime.dll
 0001:002fdcf8       cv_eml_init_relational     00000001802fecf8 f   sf_runtime:sf_runtime.dll
 0001:002fdcfe       cv_eml_init_mcdc           00000001802fecfe f   sf_runtime:sf_runtime.dll
 0001:002fdd04       cv_eml_init_if             00000001802fed04 f   sf_runtime:sf_runtime.dll
 0001:002fdd0a       sf_debug_set_script_translation 00000001802fed0a f   sf_runtime:sf_runtime.dll
 0001:002fdd10       sf_debug_get_script_id     00000001802fed10 f   sf_runtime:sf_runtime.dll
 0001:002fdd16       cv_eval_relational         00000001802fed16 f   sf_runtime:sf_runtime.dll
 0001:002fdd1c       cv_script_eval             00000001802fed1c f   sf_runtime:sf_runtime.dll
 0001:002fdd22       sf_mex_call_debug          00000001802fed22 f   sf_runtime:sf_runtime.dll
 0001:002fdd28       sf_debug_eml_data_array_bounds_error_check 00000001802fed28 f   sf_runtime:sf_runtime.dll
 0001:002fdd2e       sf_debug_integer_check     00000001802fed2e f   sf_runtime:sf_runtime.dll
 0001:002fdd34       sf_mex_import_named        00000001802fed34 f   sf_runtime:sf_runtime.dll
 0001:002fdd3a       sf_mex_get_sfun_param      00000001802fed3a f   sf_runtime:sf_runtime.dll
 0001:002fdd40       sf_set_encoded_dwork_info  00000001802fed40 f   sf_runtime:sf_runtime.dll
 0001:002fdd46       ssGetDWork_wrapper         00000001802fed46 f   sf_runtime:sf_runtime.dll
 0001:002fdd4c       sf_debug_cv_init_relationalop 00000001802fed4c f   sf_runtime:sf_runtime.dll
 0001:002fdd52       sf_debug_set_chart_state_substate_index 00000001802fed52 f   sf_runtime:sf_runtime.dll
 0001:002fdd58       sf_debug_set_chart_state_substate_count 00000001802fed58 f   sf_runtime:sf_runtime.dll
 0001:002fdd5e       sf_debug_set_chart_substate_index 00000001802fed5e f   sf_runtime:sf_runtime.dll
 0001:002fdd64       sf_get_output_port_reusable 00000001802fed64 f   sf_runtime:sf_runtime.dll
 0001:002fdd6a       sf_get_dwork_info_from_mat_file 00000001802fed6a f   sf_runtime:sf_runtime.dll
 0001:002fdd70       sf_debug_temporal_threshold 00000001802fed70 f   sf_runtime:sf_runtime.dll
 0001:002fdd76       cv_eval_point              00000001802fed76 f   sf_runtime:sf_runtime.dll
 0001:002fdd7c       sf_mex_sub                 00000001802fed7c f   sf_runtime:sf_runtime.dll
 0001:002fdd82       sf_debug_unset_instance_data_value_ptr 00000001802fed82 f   sf_runtime:sf_runtime.dll
 0001:002fdd88       sf_debug_animate           00000001802fed88 f   sf_runtime:sf_runtime.dll
 0001:002fdd8e       sf_debug_set_honor_breakpoints 00000001802fed8e f   sf_runtime:sf_runtime.dll
 0001:002fdd94       sf_debug_set_animation     00000001802fed94 f   sf_runtime:sf_runtime.dll
 0001:002fdd9a       sf_debug_get_animation     00000001802fed9a f   sf_runtime:sf_runtime.dll
 0001:002fdda0       cv_eml_init_saturation     00000001802feda0 f   sf_runtime:sf_runtime.dll
 0001:002fdda6       cv_eval_saturation         00000001802feda6 f   sf_runtime:sf_runtime.dll
 0001:002fddac       sf_debug_read_before_write_error 00000001802fedac f   sf_runtime:sf_runtime.dll
 0001:002fddb2       cv_script_init_if          00000001802fedb2 f   sf_runtime:sf_runtime.dll
 0001:002fddb8       sf_debug_size_eq_check_1d  00000001802fedb8 f   sf_runtime:sf_runtime.dll
 0001:002fddbe       sf_mex_getfield            00000001802fedbe f   sf_runtime:sf_runtime.dll
 0001:002fddc4       sf_mex_check_struct        00000001802fedc4 f   sf_runtime:sf_runtime.dll
 0001:002fddca       sf_debug_non_negative_check 00000001802fedca f   sf_runtime:sf_runtime.dll
 0001:002fddd0       cv_script_init_relational  00000001802fedd0 f   sf_runtime:sf_runtime.dll
 0001:002fddd6       cv_script_init_mcdc        00000001802fedd6 f   sf_runtime:sf_runtime.dll
 0001:002fdddc       cv_script_init_for         00000001802feddc f   sf_runtime:sf_runtime.dll
 0001:002fdde2       cv_script_init_switch      00000001802fede2 f   sf_runtime:sf_runtime.dll
 0001:002fdde8       cv_eml_init_switch         00000001802fede8 f   sf_runtime:sf_runtime.dll
 0001:002fddee       sf_debug_sub_assign_size_check_nd 00000001802fedee f   sf_runtime:sf_runtime.dll
 0001:002fddf4       sf_debug_symbol_switch     00000001802fedf4 f   sf_runtime:sf_runtime.dll
 0001:002fddfa       sf_mex_listen_for_ctrl_c   00000001802fedfa f   sf_runtime:sf_runtime.dll
 0001:002fde00       cv_eml_init_for            00000001802fee00 f   sf_runtime:sf_runtime.dll
 0001:002fde06       sf_debug_set_chart_event_scope 00000001802fee06 f   sf_runtime:sf_runtime.dll
 0001:002fde0c       sf_mex_createstructarray   00000001802fee0c f   sf_runtime:sf_runtime.dll
 0001:002fde12       sf_debug_symbol_scope_add_importable 00000001802fee12 f   sf_runtime:sf_runtime.dll
 0001:002fde18       sf_debug_symbol_scope_add_eml_dyn_importable 00000001802fee18 f   sf_runtime:sf_runtime.dll
 0001:002fde1e       sf_mex_import_vs           00000001802fee1e f   sf_runtime:sf_runtime.dll
 0001:002fde24       sf_debug_for_loop_vector_check 00000001802fee24 f   sf_runtime:sf_runtime.dll
 0001:002fde2a       sf_debug_terminate         00000001802fee2a f   sf_runtime:sf_runtime.dll
 0001:002fde30       sf_debug_create_debug_instance_struct 00000001802fee30 f   sf_runtime:sf_runtime.dll
 0001:002fde36       sf_debug_api               00000001802fee36 f   sf_runtime:sf_runtime.dll
 0001:002fde3c       callMdlMethodAndReportError 00000001802fee3c f   sf_runtime:sf_runtime.dll
 0001:002fde42       call_sf_machine_global_method_dispatcher 00000001802fee42 f   sf_runtime:sf_runtime.dll
 0001:002fde48       sf_clear_error_manager_info 00000001802fee48 f   sf_runtime:sf_runtime.dll
 0001:002fde4e       sf_mex_error_direct_call   00000001802fee4e f   sf_runtime:sf_runtime.dll
 0001:002fde54       mxCreateLogicalScalar      00000001802fee54 f   libmx:libmx.dll
 0001:002fde5a       mxCreateDoubleMatrix_730   00000001802fee5a f   libmx:libmx.dll
 0001:002fde60       mxGetScalar                00000001802fee60 f   libmx:libmx.dll
 0001:002fde66       mxGetString_730            00000001802fee66 f   libmx:libmx.dll
 0001:002fde6c       mxIsChar                   00000001802fee6c f   libmx:libmx.dll
 0001:002fde72       mxGetPr                    00000001802fee72 f   libmx:libmx.dll
 0001:002fde78       mxDestroyArray             00000001802fee78 f   libmx:libmx.dll
 0001:002fde7e       mxDuplicateArray           00000001802fee7e f   libmx:libmx.dll
 0001:002fde84       mxCreateDoubleScalar       00000001802fee84 f   libmx:libmx.dll
 0001:002fde8a       mxSetField_730             00000001802fee8a f   libmx:libmx.dll
 0001:002fde90       mxCreateString             00000001802fee90 f   libmx:libmx.dll
 0001:002fde96       mxCreateStructMatrix_730   00000001802fee96 f   libmx:libmx.dll
 0001:002fde9c       mxCreateCellMatrix_730     00000001802fee9c f   libmx:libmx.dll
 0001:002fdea2       mxCreateCellArray_730      00000001802feea2 f   libmx:libmx.dll
 0001:002fdea8       mxCreateStructArray_730    00000001802feea8 f   libmx:libmx.dll
 0001:002fdeae       mxGetNaN                   00000001802feeae f   libmx:libmx.dll
 0001:002fdeb4       mxGetInf                   00000001802feeb4 f   libmx:libmx.dll
 0001:002fdeba       mxGetClassID               00000001802feeba f   libmx:libmx.dll
 0001:002fdec0       mxIsNumeric                00000001802feec0 f   libmx:libmx.dll
 0001:002fdec6       mxIsComplex                00000001802feec6 f   libmx:libmx.dll
 0001:002fdecc       mxGetN                     00000001802feecc f   libmx:libmx.dll
 0001:002fded2       mxGetM                     00000001802feed2 f   libmx:libmx.dll
 0001:002fded8       mxCalloc                   00000001802feed8 f   libmx:libmx.dll
 0001:002fdede       mexMakeArrayPersistent     00000001802feede f   libmex:libmex.dll
 0001:002fdee4       mexUnlock                  00000001802feee4 f   libmex:libmex.dll
 0001:002fdeea       mexIsLocked                00000001802feeea f   libmex:libmex.dll
 0001:002fdef0       mexWarnMsgTxt              00000001802feef0 f   libmex:libmex.dll
 0001:002fdef6       mexCallMATLABWithObject    00000001802feef6 f   libmex:libmex.dll
 0001:002fdefc       mexErrMsgTxt               00000001802feefc f   libmex:libmex.dll
 0001:002fdf02       mexLock                    00000001802fef02 f   libmex:libmex.dll
 0001:002fdf08       utMalloc                   00000001802fef08 f   libut:libut.dll
 0001:002fdf0e       utFree                     00000001802fef0e f   libut:libut.dll
 0001:002fdf14       muDoubleScalarSin          00000001802fef14 f   libmwmathutil:libmwmathutil.dll
 0001:002fdf1a       muDoubleScalarCos          00000001802fef1a f   libmwmathutil:libmwmathutil.dll
 0001:002fdf20       muDoubleScalarAsin         00000001802fef20 f   libmwmathutil:libmwmathutil.dll
 0001:002fdf26       muDoubleScalarAtan2        00000001802fef26 f   libmwmathutil:libmwmathutil.dll
 0001:002fdf2c       muDoubleScalarAbs          00000001802fef2c f   libmwmathutil:libmwmathutil.dll
 0001:002fdf32       muDoubleScalarRound        00000001802fef32 f   libmwmathutil:libmwmathutil.dll
 0001:002fdf38       muDoubleScalarFloor        00000001802fef38 f   libmwmathutil:libmwmathutil.dll
 0001:002fdf3e       muDoubleScalarIsNaN        00000001802fef3e f   libmwmathutil:libmwmathutil.dll
 0001:002fdf44       muDoubleScalarMax          00000001802fef44 f   libmwmathutil:libmwmathutil.dll
 0001:002fdf4a       muDoubleScalarMin          00000001802fef4a f   libmwmathutil:libmwmathutil.dll
 0001:002fdf50       muDoubleScalarCeil         00000001802fef50 f   libmwmathutil:libmwmathutil.dll
 0001:002fdf56       muDoubleScalarPower        00000001802fef56 f   libmwmathutil:libmwmathutil.dll
 0001:002fdf5c       muDoubleScalarIsInf        00000001802fef5c f   libmwmathutil:libmwmathutil.dll
 0001:002fdf62       dgemm                      00000001802fef62 f   libmwblas:libmwblas.dll
 0001:002fdf68       __GSHandlerCheckCommon     00000001802fef68 f   MSVCRT:gshandler.obj
 0001:002fdfcc       __GSHandlerCheck           00000001802fefcc f   MSVCRT:gshandler.obj
 0001:002fdfea       strcmp                     00000001802fefea f   MSVCRT:MSVCR100.dll
 0001:002fe000       __security_check_cookie    00000001802ff000 f   MSVCRT:amdsecgs.obj
 0001:002fe020       strlen                     00000001802ff020 f   MSVCRT:MSVCR100.dll
 0001:002fe026       memset                     00000001802ff026 f   MSVCRT:MSVCR100.dll
 0001:002fe02c       memcpy                     00000001802ff02c f   MSVCRT:MSVCR100.dll
 0001:002fe050       _alloca_probe              00000001802ff050     MSVCRT:chkstk.obj
 0001:002fe050       __chkstk                   00000001802ff050 f   MSVCRT:chkstk.obj
 0001:002fe09e       ldexp                      00000001802ff09e f   MSVCRT:MSVCR100.dll
 0001:002fe0a4       frexp                      00000001802ff0a4 f   MSVCRT:MSVCR100.dll
 0001:002fe0aa       free                       00000001802ff0aa f   MSVCRT:MSVCR100.dll
 0001:002fe0b0       sprintf                    00000001802ff0b0 f   MSVCRT:MSVCR100.dll
 0001:002fe0b6       malloc                     00000001802ff0b6 f   MSVCRT:MSVCR100.dll
 0001:002fe0bc       strcat                     00000001802ff0bc f   MSVCRT:MSVCR100.dll
 0001:002fe0c4       NtCurrentTeb               00000001802ff0c4 f i MSVCRT:crtdll.obj
 0001:002fe130       _CRT_INIT                  00000001802ff130 f   MSVCRT:crtdll.obj
 0001:002fe4c8       _DllMainCRTStartup         00000001802ff4c8 f   MSVCRT:crtdll.obj
 0001:002fe508       __report_gsfailure         00000001802ff508 f   MSVCRT:gs_report.obj
 0001:002fe654       __clean_type_info_names    00000001802ff654 f   MSVCRT:tncleanup.obj
 0001:002fe660       _onexit                    00000001802ff660 f   MSVCRT:atonexit.obj
 0001:002fe710       atexit                     00000001802ff710 f   MSVCRT:atonexit.obj
 0001:002fe728       _RTC_Initialize            00000001802ff728 f   MSVCRT:_initsect_.obj
 0001:002fe760       _RTC_Terminate             00000001802ff760 f   MSVCRT:_initsect_.obj
 0001:002fe798       _malloc_crt                00000001802ff798 f   MSVCRT:MSVCR100.dll
 0001:002fe7a0       _ValidateImageBase         00000001802ff7a0 f   MSVCRT:pesect.obj
 0001:002fe7d0       _FindPESection             00000001802ff7d0 f   MSVCRT:pesect.obj
 0001:002fe820       _IsNonwritableInCurrentImage 00000001802ff820 f   MSVCRT:pesect.obj
 0001:002fe862       _initterm                  00000001802ff862 f   MSVCRT:MSVCR100.dll
 0001:002fe868       _initterm_e                00000001802ff868 f   MSVCRT:MSVCR100.dll
 0001:002fe86e       _encoded_null              00000001802ff86e f   MSVCRT:MSVCR100.dll
 0001:002fe874       _amsg_exit                 00000001802ff874 f   MSVCRT:MSVCR100.dll
 0001:002fe87a       __C_specific_handler       00000001802ff87a f   MSVCRT:MSVCR100.dll
 0001:002fe880       __CppXcptFilter            00000001802ff880 f   MSVCRT:MSVCR100.dll
 0001:002fe888       DllMain                    00000001802ff888 f   MSVCRT:dllmain.obj
 0001:002fe8ac       __security_init_cookie     00000001802ff8ac f   MSVCRT:gs_support.obj
 0001:002fe960       __crt_debugger_hook        00000001802ff960 f   MSVCRT:MSVCR100.dll
 0001:002fe966       __clean_type_info_names_internal 00000001802ff966 f   MSVCRT:MSVCR100.dll
 0001:002fe96c       _unlock                    00000001802ff96c f   MSVCRT:MSVCR100.dll
 0001:002fe972       __dllonexit                00000001802ff972 f   MSVCRT:MSVCR100.dll
 0001:002fe978       _lock                      00000001802ff978 f   MSVCRT:MSVCR100.dll
 0001:002fe97e       EncodePointer              00000001802ff97e f   kernel32:KERNEL32.dll
 0001:002fe984       DecodePointer              00000001802ff984 f   kernel32:KERNEL32.dll
 0001:002fe98a       Sleep                      00000001802ff98a f   kernel32:KERNEL32.dll
 0001:002fe990       TerminateProcess           00000001802ff990 f   kernel32:KERNEL32.dll
 0001:002fe996       GetCurrentProcess          00000001802ff996 f   kernel32:KERNEL32.dll
 0001:002fe99c       UnhandledExceptionFilter   00000001802ff99c f   kernel32:KERNEL32.dll
 0001:002fe9a2       SetUnhandledExceptionFilter 00000001802ff9a2 f   kernel32:KERNEL32.dll
 0001:002fe9a8       IsDebuggerPresent          00000001802ff9a8 f   kernel32:KERNEL32.dll
 0001:002fe9ae       RtlVirtualUnwind           00000001802ff9ae f   kernel32:KERNEL32.dll
 0001:002fe9b4       RtlLookupFunctionEntry     00000001802ff9b4 f   kernel32:KERNEL32.dll
 0001:002fe9ba       RtlCaptureContext          00000001802ff9ba f   kernel32:KERNEL32.dll
 0001:002fe9c0       DisableThreadLibraryCalls  00000001802ff9c0 f   kernel32:KERNEL32.dll
 0001:002fe9c6       QueryPerformanceCounter    00000001802ff9c6 f   kernel32:KERNEL32.dll
 0001:002fe9cc       GetTickCount               00000001802ff9cc f   kernel32:KERNEL32.dll
 0001:002fe9d2       GetCurrentThreadId         00000001802ff9d2 f   kernel32:KERNEL32.dll
 0001:002fe9d8       GetCurrentProcessId        00000001802ff9d8 f   kernel32:KERNEL32.dll
 0001:002fe9de       GetSystemTimeAsFileTime    00000001802ff9de f   kernel32:KERNEL32.dll
 0002:00000000       __imp_GetCurrentProcessId  0000000180300000     kernel32:KERNEL32.dll
 0002:00000008       __imp_GetCurrentThreadId   0000000180300008     kernel32:KERNEL32.dll
 0002:00000010       __imp_GetTickCount         0000000180300010     kernel32:KERNEL32.dll
 0002:00000018       __imp_QueryPerformanceCounter 0000000180300018     kernel32:KERNEL32.dll
 0002:00000020       __imp_DisableThreadLibraryCalls 0000000180300020     kernel32:KERNEL32.dll
 0002:00000028       __imp_RtlCaptureContext    0000000180300028     kernel32:KERNEL32.dll
 0002:00000030       __imp_RtlLookupFunctionEntry 0000000180300030     kernel32:KERNEL32.dll
 0002:00000038       __imp_RtlVirtualUnwind     0000000180300038     kernel32:KERNEL32.dll
 0002:00000040       __imp_IsDebuggerPresent    0000000180300040     kernel32:KERNEL32.dll
 0002:00000048       __imp_SetUnhandledExceptionFilter 0000000180300048     kernel32:KERNEL32.dll
 0002:00000050       __imp_UnhandledExceptionFilter 0000000180300050     kernel32:KERNEL32.dll
 0002:00000058       __imp_GetCurrentProcess    0000000180300058     kernel32:KERNEL32.dll
 0002:00000060       __imp_TerminateProcess     0000000180300060     kernel32:KERNEL32.dll
 0002:00000068       __imp_Sleep                0000000180300068     kernel32:KERNEL32.dll
 0002:00000070       __imp_DecodePointer        0000000180300070     kernel32:KERNEL32.dll
 0002:00000078       __imp_EncodePointer        0000000180300078     kernel32:KERNEL32.dll
 0002:00000080       __imp_GetSystemTimeAsFileTime 0000000180300080     kernel32:KERNEL32.dll
 0002:00000088       \177KERNEL32_NULL_THUNK_DATA 0000000180300088     kernel32:KERNEL32.dll
 0002:00000090       __imp__onexit              0000000180300090     MSVCRT:MSVCR100.dll
 0002:00000098       __imp___dllonexit          0000000180300098     MSVCRT:MSVCR100.dll
 0002:000000a0       __imp__unlock              00000001803000a0     MSVCRT:MSVCR100.dll
 0002:000000a8       __imp___clean_type_info_names_internal 00000001803000a8     MSVCRT:MSVCR100.dll
 0002:000000b0       __imp___crt_debugger_hook  00000001803000b0     MSVCRT:MSVCR100.dll
 0002:000000b8       __imp___CppXcptFilter      00000001803000b8     MSVCRT:MSVCR100.dll
 0002:000000c0       __imp___C_specific_handler 00000001803000c0     MSVCRT:MSVCR100.dll
 0002:000000c8       __imp__amsg_exit           00000001803000c8     MSVCRT:MSVCR100.dll
 0002:000000d0       __imp__encoded_null        00000001803000d0     MSVCRT:MSVCR100.dll
 0002:000000d8       __imp__initterm_e          00000001803000d8     MSVCRT:MSVCR100.dll
 0002:000000e0       __imp__initterm            00000001803000e0     MSVCRT:MSVCR100.dll
 0002:000000e8       __imp__malloc_crt          00000001803000e8     MSVCRT:MSVCR100.dll
 0002:000000f0       __imp_strcat               00000001803000f0     MSVCRT:MSVCR100.dll
 0002:000000f8       __imp_malloc               00000001803000f8     MSVCRT:MSVCR100.dll
 0002:00000100       __imp_sprintf              0000000180300100     MSVCRT:MSVCR100.dll
 0002:00000108       __imp_free                 0000000180300108     MSVCRT:MSVCR100.dll
 0002:00000110       __imp_frexp                0000000180300110     MSVCRT:MSVCR100.dll
 0002:00000118       __imp_ldexp                0000000180300118     MSVCRT:MSVCR100.dll
 0002:00000120       __imp_memcpy               0000000180300120     MSVCRT:MSVCR100.dll
 0002:00000128       __imp_memset               0000000180300128     MSVCRT:MSVCR100.dll
 0002:00000130       __imp_strlen               0000000180300130     MSVCRT:MSVCR100.dll
 0002:00000138       __imp_strcmp               0000000180300138     MSVCRT:MSVCR100.dll
 0002:00000140       __imp__lock                0000000180300140     MSVCRT:MSVCR100.dll
 0002:00000148       \177MSVCR100_NULL_THUNK_DATA 0000000180300148     MSVCRT:MSVCR100.dll
 0002:00000150       __imp_mexMakeArrayPersistent 0000000180300150     libmex:libmex.dll
 0002:00000158       __imp_mexLock              0000000180300158     libmex:libmex.dll
 0002:00000160       __imp_mexUnlock            0000000180300160     libmex:libmex.dll
 0002:00000168       __imp_mexIsLocked          0000000180300168     libmex:libmex.dll
 0002:00000170       __imp_mexWarnMsgTxt        0000000180300170     libmex:libmex.dll
 0002:00000178       __imp_mexCallMATLABWithObject 0000000180300178     libmex:libmex.dll
 0002:00000180       __imp_mexErrMsgTxt         0000000180300180     libmex:libmex.dll
 0002:00000188       \177libmex_NULL_THUNK_DATA 0000000180300188     libmex:libmex.dll
 0002:00000190       __imp_dgemm                0000000180300190     libmwblas:libmwblas.dll
 0002:00000198       \177libmwblas_NULL_THUNK_DATA 0000000180300198     libmwblas:libmwblas.dll
 0002:000001a0       __imp_muDoubleScalarRound  00000001803001a0     libmwmathutil:libmwmathutil.dll
 0002:000001a8       __imp_muDoubleScalarAbs    00000001803001a8     libmwmathutil:libmwmathutil.dll
 0002:000001b0       __imp_muDoubleScalarFloor  00000001803001b0     libmwmathutil:libmwmathutil.dll
 0002:000001b8       __imp_muDoubleScalarAsin   00000001803001b8     libmwmathutil:libmwmathutil.dll
 0002:000001c0       __imp_muDoubleScalarCos    00000001803001c0     libmwmathutil:libmwmathutil.dll
 0002:000001c8       __imp_muDoubleScalarSin    00000001803001c8     libmwmathutil:libmwmathutil.dll
 0002:000001d0       __imp_muDoubleScalarIsNaN  00000001803001d0     libmwmathutil:libmwmathutil.dll
 0002:000001d8       __imp_muDoubleScalarMax    00000001803001d8     libmwmathutil:libmwmathutil.dll
 0002:000001e0       __imp_muDoubleScalarMin    00000001803001e0     libmwmathutil:libmwmathutil.dll
 0002:000001e8       __imp_muDoubleScalarCeil   00000001803001e8     libmwmathutil:libmwmathutil.dll
 0002:000001f0       __imp_muDoubleScalarPower  00000001803001f0     libmwmathutil:libmwmathutil.dll
 0002:000001f8       __imp_muDoubleScalarIsInf  00000001803001f8     libmwmathutil:libmwmathutil.dll
 0002:00000200       __imp_muDoubleScalarAtan2  0000000180300200     libmwmathutil:libmwmathutil.dll
 0002:00000208       \177libmwmathutil_NULL_THUNK_DATA 0000000180300208     libmwmathutil:libmwmathutil.dll
 0002:00000210       __imp_mxCalloc             0000000180300210     libmx:libmx.dll
 0002:00000218       __imp_mxGetM               0000000180300218     libmx:libmx.dll
 0002:00000220       __imp_mxGetN               0000000180300220     libmx:libmx.dll
 0002:00000228       __imp_mxIsComplex          0000000180300228     libmx:libmx.dll
 0002:00000230       __imp_mxIsNumeric          0000000180300230     libmx:libmx.dll
 0002:00000238       __imp_mxGetClassID         0000000180300238     libmx:libmx.dll
 0002:00000240       __imp_mxGetInf             0000000180300240     libmx:libmx.dll
 0002:00000248       __imp_mxGetNaN             0000000180300248     libmx:libmx.dll
 0002:00000250       __imp_mxCreateStructArray_730 0000000180300250     libmx:libmx.dll
 0002:00000258       __imp_mxCreateCellArray_730 0000000180300258     libmx:libmx.dll
 0002:00000260       __imp_mxCreateCellMatrix_730 0000000180300260     libmx:libmx.dll
 0002:00000268       __imp_mxCreateStructMatrix_730 0000000180300268     libmx:libmx.dll
 0002:00000270       __imp_mxCreateString       0000000180300270     libmx:libmx.dll
 0002:00000278       __imp_mxSetField_730       0000000180300278     libmx:libmx.dll
 0002:00000280       __imp_mxCreateDoubleScalar 0000000180300280     libmx:libmx.dll
 0002:00000288       __imp_mxDuplicateArray     0000000180300288     libmx:libmx.dll
 0002:00000290       __imp_mxDestroyArray       0000000180300290     libmx:libmx.dll
 0002:00000298       __imp_mxGetPr              0000000180300298     libmx:libmx.dll
 0002:000002a0       __imp_mxIsChar             00000001803002a0     libmx:libmx.dll
 0002:000002a8       __imp_mxGetString_730      00000001803002a8     libmx:libmx.dll
 0002:000002b0       __imp_mxGetScalar          00000001803002b0     libmx:libmx.dll
 0002:000002b8       __imp_mxCreateDoubleMatrix_730 00000001803002b8     libmx:libmx.dll
 0002:000002c0       __imp_mxCreateLogicalScalar 00000001803002c0     libmx:libmx.dll
 0002:000002c8       \177libmx_NULL_THUNK_DATA  00000001803002c8     libmx:libmx.dll
 0002:000002d0       __imp_utMalloc             00000001803002d0     libut:libut.dll
 0002:000002d8       __imp_utFree               00000001803002d8     libut:libut.dll
 0002:000002e0       \177libut_NULL_THUNK_DATA  00000001803002e0     libut:libut.dll
 0002:000002e8       __imp_cv_script_init_relational 00000001803002e8     sf_runtime:sf_runtime.dll
 0002:000002f0       __imp_cv_script_init_mcdc  00000001803002f0     sf_runtime:sf_runtime.dll
 0002:000002f8       __imp_cv_script_init_for   00000001803002f8     sf_runtime:sf_runtime.dll
 0002:00000300       __imp_cv_script_init_switch 0000000180300300     sf_runtime:sf_runtime.dll
 0002:00000308       __imp_cv_eml_init_switch   0000000180300308     sf_runtime:sf_runtime.dll
 0002:00000310       __imp_sf_debug_sub_assign_size_check_nd 0000000180300310     sf_runtime:sf_runtime.dll
 0002:00000318       __imp_sf_debug_symbol_switch 0000000180300318     sf_runtime:sf_runtime.dll
 0002:00000320       __imp_sf_mex_listen_for_ctrl_c 0000000180300320     sf_runtime:sf_runtime.dll
 0002:00000328       __imp_cv_eml_init_for      0000000180300328     sf_runtime:sf_runtime.dll
 0002:00000330       __imp_sf_debug_set_chart_event_scope 0000000180300330     sf_runtime:sf_runtime.dll
 0002:00000338       __imp_sf_mex_createstructarray 0000000180300338     sf_runtime:sf_runtime.dll
 0002:00000340       __imp_sf_debug_size_eq_check_1d 0000000180300340     sf_runtime:sf_runtime.dll
 0002:00000348       __imp_sf_debug_symbol_scope_add_eml_dyn_importable 0000000180300348     sf_runtime:sf_runtime.dll
 0002:00000350       __imp_sf_mex_import_vs     0000000180300350     sf_runtime:sf_runtime.dll
 0002:00000358       __imp_sf_debug_for_loop_vector_check 0000000180300358     sf_runtime:sf_runtime.dll
 0002:00000360       __imp_sf_debug_terminate   0000000180300360     sf_runtime:sf_runtime.dll
 0002:00000368       __imp_sf_debug_create_debug_instance_struct 0000000180300368     sf_runtime:sf_runtime.dll
 0002:00000370       __imp_sf_debug_api         0000000180300370     sf_runtime:sf_runtime.dll
 0002:00000378       __imp_callMdlMethodAndReportError 0000000180300378     sf_runtime:sf_runtime.dll
 0002:00000380       __imp_call_sf_machine_global_method_dispatcher 0000000180300380     sf_runtime:sf_runtime.dll
 0002:00000388       __imp_sf_clear_error_manager_info 0000000180300388     sf_runtime:sf_runtime.dll
 0002:00000390       __imp_sf_mex_error_direct_call 0000000180300390     sf_runtime:sf_runtime.dll
 0002:00000398       __imp_sf_debug_check_for_state_inconsistency 0000000180300398     sf_runtime:sf_runtime.dll
 0002:000003a0       __imp_cv_script_init_if    00000001803003a0     sf_runtime:sf_runtime.dll
 0002:000003a8       __imp_sf_debug_read_before_write_error 00000001803003a8     sf_runtime:sf_runtime.dll
 0002:000003b0       __imp_cv_eval_saturation   00000001803003b0     sf_runtime:sf_runtime.dll
 0002:000003b8       __imp_sf_debug_non_negative_check 00000001803003b8     sf_runtime:sf_runtime.dll
 0002:000003c0       __imp_sf_debug_get_animation 00000001803003c0     sf_runtime:sf_runtime.dll
 0002:000003c8       __imp_sf_debug_set_animation 00000001803003c8     sf_runtime:sf_runtime.dll
 0002:000003d0       __imp_sf_debug_set_honor_breakpoints 00000001803003d0     sf_runtime:sf_runtime.dll
 0002:000003d8       __imp_sf_debug_animate     00000001803003d8     sf_runtime:sf_runtime.dll
 0002:000003e0       __imp_sf_debug_unset_instance_data_value_ptr 00000001803003e0     sf_runtime:sf_runtime.dll
 0002:000003e8       __imp_sf_mex_sub           00000001803003e8     sf_runtime:sf_runtime.dll
 0002:000003f0       __imp_cv_eval_point        00000001803003f0     sf_runtime:sf_runtime.dll
 0002:000003f8       __imp_sf_debug_temporal_threshold 00000001803003f8     sf_runtime:sf_runtime.dll
 0002:00000400       __imp_sf_get_dwork_info_from_mat_file 0000000180300400     sf_runtime:sf_runtime.dll
 0002:00000408       __imp_sf_get_output_port_reusable 0000000180300408     sf_runtime:sf_runtime.dll
 0002:00000410       __imp_sf_debug_set_chart_substate_index 0000000180300410     sf_runtime:sf_runtime.dll
 0002:00000418       __imp_sf_debug_set_chart_state_substate_count 0000000180300418     sf_runtime:sf_runtime.dll
 0002:00000420       __imp_sf_debug_set_chart_state_substate_index 0000000180300420     sf_runtime:sf_runtime.dll
 0002:00000428       __imp_sf_debug_cv_init_relationalop 0000000180300428     sf_runtime:sf_runtime.dll
 0002:00000430       __imp_ssGetDWork_wrapper   0000000180300430     sf_runtime:sf_runtime.dll
 0002:00000438       __imp_sf_set_encoded_dwork_info 0000000180300438     sf_runtime:sf_runtime.dll
 0002:00000440       __imp_sf_mex_get_sfun_param 0000000180300440     sf_runtime:sf_runtime.dll
 0002:00000448       __imp_sf_mex_import_named  0000000180300448     sf_runtime:sf_runtime.dll
 0002:00000450       __imp_sf_debug_integer_check 0000000180300450     sf_runtime:sf_runtime.dll
 0002:00000458       __imp_sf_debug_eml_data_array_bounds_error_check 0000000180300458     sf_runtime:sf_runtime.dll
 0002:00000460       __imp_sf_mex_call_debug    0000000180300460     sf_runtime:sf_runtime.dll
 0002:00000468       __imp_cv_script_eval       0000000180300468     sf_runtime:sf_runtime.dll
 0002:00000470       __imp_cv_eval_relational   0000000180300470     sf_runtime:sf_runtime.dll
 0002:00000478       __imp_sf_debug_get_script_id 0000000180300478     sf_runtime:sf_runtime.dll
 0002:00000480       __imp_sf_debug_set_script_translation 0000000180300480     sf_runtime:sf_runtime.dll
 0002:00000488       __imp_cv_eml_init_if       0000000180300488     sf_runtime:sf_runtime.dll
 0002:00000490       __imp_cv_eml_init_mcdc     0000000180300490     sf_runtime:sf_runtime.dll
 0002:00000498       __imp_sf_mex_check_struct  0000000180300498     sf_runtime:sf_runtime.dll
 0002:000004a0       __imp_cv_eml_init_saturation 00000001803004a0     sf_runtime:sf_runtime.dll
 0002:000004a8       __imp_sf_mex_getfield      00000001803004a8     sf_runtime:sf_runtime.dll
 0002:000004b0       __imp_cv_eml_init_relational 00000001803004b0     sf_runtime:sf_runtime.dll
 0002:000004b8       __imp_cv_script_init_script 00000001803004b8     sf_runtime:sf_runtime.dll
 0002:000004c0       __imp_cv_script_init_fcn   00000001803004c0     sf_runtime:sf_runtime.dll
 0002:000004c8       __imp_sf_clear_rtw_identifier 00000001803004c8     sf_runtime:sf_runtime.dll
 0002:000004d0       __imp_sf_mex_getcell       00000001803004d0     sf_runtime:sf_runtime.dll
 0002:000004d8       __imp_sf_mex_setcell       00000001803004d8     sf_runtime:sf_runtime.dll
 0002:000004e0       __imp_sf_debug_symbol_scope_push_eml 00000001803004e0     sf_runtime:sf_runtime.dll
 0002:000004e8       __imp_sf_debug_symbol_scope_add_eml_importable 00000001803004e8     sf_runtime:sf_runtime.dll
 0002:000004f0       __imp_sf_debug_symbol_scope_add_eml 00000001803004f0     sf_runtime:sf_runtime.dll
 0002:000004f8       __imp_cv_eml_eval          00000001803004f8     sf_runtime:sf_runtime.dll
 0002:00000500       __imp_eml_debug_line_call  0000000180300500     sf_runtime:sf_runtime.dll
 0002:00000508       __imp_sf_debug_symbol_scope_push 0000000180300508     sf_runtime:sf_runtime.dll
 0002:00000510       __imp_sf_debug_call        0000000180300510     sf_runtime:sf_runtime.dll
 0002:00000518       __imp_sf_debug_data_range_wrapper 0000000180300518     sf_runtime:sf_runtime.dll
 0002:00000520       __imp_sf_debug_symbol_scope_pop 0000000180300520     sf_runtime:sf_runtime.dll
 0002:00000528       __imp_sf_get_time          0000000180300528     sf_runtime:sf_runtime.dll
 0002:00000530       __imp_sf_mex_import        0000000180300530     sf_runtime:sf_runtime.dll
 0002:00000538       __imp_sf_mex_dup           0000000180300538     sf_runtime:sf_runtime.dll
 0002:00000540       __imp_sf_debug_initialize_chart 0000000180300540     sf_runtime:sf_runtime.dll
 0002:00000548       __imp_sf_debug_set_chart_disable_implicit_casting 0000000180300548     sf_runtime:sf_runtime.dll
 0002:00000550       __imp_sf_debug_set_chart_event_thresholds 0000000180300550     sf_runtime:sf_runtime.dll
 0002:00000558       __imp_sf_debug_set_chart_data_props 0000000180300558     sf_runtime:sf_runtime.dll
 0002:00000560       __imp_sf_debug_set_chart_state_info 0000000180300560     sf_runtime:sf_runtime.dll
 0002:00000568       __imp_sf_debug_set_chart_substate_count 0000000180300568     sf_runtime:sf_runtime.dll
 0002:00000570       __imp_sf_debug_set_chart_decomposition 0000000180300570     sf_runtime:sf_runtime.dll
 0002:00000578       __imp_sf_debug_cv_init_chart 0000000180300578     sf_runtime:sf_runtime.dll
 0002:00000580       __imp_sf_debug_cv_init_state 0000000180300580     sf_runtime:sf_runtime.dll
 0002:00000588       __imp_sf_debug_cv_init_trans 0000000180300588     sf_runtime:sf_runtime.dll
 0002:00000590       __imp_cv_eml_init_script   0000000180300590     sf_runtime:sf_runtime.dll
 0002:00000598       __imp_cv_eml_init_fcn      0000000180300598     sf_runtime:sf_runtime.dll
 0002:000005a0       __imp_sf_debug_set_chart_data_compiled_props 00000001803005a0     sf_runtime:sf_runtime.dll
 0002:000005a8       __imp_sf_debug_set_instance_data_value_ptr 00000001803005a8     sf_runtime:sf_runtime.dll
 0002:000005b0       __imp_sf_debug_reset_current_state_configuration 00000001803005b0     sf_runtime:sf_runtime.dll
 0002:000005b8       __imp_sf_mex_decode_encoded_mx_struct_array 00000001803005b8     sf_runtime:sf_runtime.dll
 0002:000005c0       __imp_ssGetInputPortSignal_wrapper 00000001803005c0     sf_runtime:sf_runtime.dll
 0002:000005c8       __imp_ssGetOutputPortSignal_wrapper 00000001803005c8     sf_runtime:sf_runtime.dll
 0002:000005d0       __imp_sim_mode_is_rtw_gen  00000001803005d0     sf_runtime:sf_runtime.dll
 0002:000005d8       __imp_sim_mode_is_external 00000001803005d8     sf_runtime:sf_runtime.dll
 0002:000005e0       __imp_sf_rtw_info_uint_prop 00000001803005e0     sf_runtime:sf_runtime.dll
 0002:000005e8       __imp_sf_is_chart_inlinable 00000001803005e8     sf_runtime:sf_runtime.dll
 0002:000005f0       __imp_sf_update_buildInfo  00000001803005f0     sf_runtime:sf_runtime.dll
 0002:000005f8       __imp_sf_mark_chart_expressionable_inputs 00000001803005f8     sf_runtime:sf_runtime.dll
 0002:00000600       __imp_sf_mark_chart_reusable_outputs 0000000180300600     sf_runtime:sf_runtime.dll
 0002:00000608       __imp_sf_set_rtw_dwork_info 0000000180300608     sf_runtime:sf_runtime.dll
 0002:00000610       __imp_sf_mex_error_message 0000000180300610     sf_runtime:sf_runtime.dll
 0002:00000618       __imp_sf_mex_create        0000000180300618     sf_runtime:sf_runtime.dll
 0002:00000620       __imp_sf_mex_addfield      0000000180300620     sf_runtime:sf_runtime.dll
 0002:00000628       __imp_sf_mex_createcellmatrix 0000000180300628     sf_runtime:sf_runtime.dll
 0002:00000630       __imp_sf_mex_duplicatearraysafe 0000000180300630     sf_runtime:sf_runtime.dll
 0002:00000638       __imp_sf_mex_destroy       0000000180300638     sf_runtime:sf_runtime.dll
 0002:00000640       __imp_sf_mex_createstruct  0000000180300640     sf_runtime:sf_runtime.dll
 0002:00000648       __imp_sf_mex_assign        0000000180300648     sf_runtime:sf_runtime.dll
 0002:00000650       __imp_sf_mex_emlrtNameCapturePostProcessR2012a 0000000180300650     sf_runtime:sf_runtime.dll
 0002:00000658       __imp_sf_load_rtw_optimization_info 0000000180300658     sf_runtime:sf_runtime.dll
 0002:00000660       __imp_sf_debug_initialize_machine 0000000180300660     sf_runtime:sf_runtime.dll
 0002:00000668       __imp_sf_debug_set_machine_event_thresholds 0000000180300668     sf_runtime:sf_runtime.dll
 0002:00000670       __imp_sf_debug_symbol_scope_add_importable 0000000180300670     sf_runtime:sf_runtime.dll
 0002:00000678       __imp_sf_debug_set_machine_data_thresholds 0000000180300678     sf_runtime:sf_runtime.dll
 0002:00000680       \177sf_runtime_NULL_THUNK_DATA 0000000180300680     sf_runtime:sf_runtime.dll
 0002:00000688       __xc_a                     0000000180300688     MSVCRT:cinitexe.obj
 0002:00000690       __xc_z                     0000000180300690     MSVCRT:cinitexe.obj
 0002:00000698       __xi_a                     0000000180300698     MSVCRT:cinitexe.obj
 0002:000006a8       __xi_z                     00000001803006a8     MSVCRT:cinitexe.obj
 0002:000006b0       __real@41cf889ce2000000    00000001803006b0     Walking01_DDA3D_sfun.obj
 0002:000006b8       __real@41e3a3f90f800000    00000001803006b8     Walking01_DDA3D_sfun.obj
 0002:000006c0       __real@41d703a11e800000    00000001803006c0     Walking01_DDA3D_sfun.obj
 0002:000006c8       __real@41ec835feb800000    00000001803006c8     Walking01_DDA3D_sfun.obj
 0002:000006d0       __real@41c62afd6a800000    00000001803006d0     Walking01_DDA3D_sfun.obj
 0002:000006d8       __real@41d780c429400000    00000001803006d8     Walking01_DDA3D_sfun.obj
 0002:000006e0       __real@41e5ee5bc8400000    00000001803006e0     Walking01_DDA3D_sfun.obj
 0002:000006e8       __real@41c3bfc78f800000    00000001803006e8     Walking01_DDA3D_sfun.obj
 0002:000006f0       __real@41cc31beb9000000    00000001803006f0     Walking01_DDA3D_sfun.obj
 0002:000006f8       __real@41e987f8a4600000    00000001803006f8     Walking01_DDA3D_sfun.obj
 0002:00000700       __real@41ecfef680000000    0000000180300700     Walking01_DDA3D_sfun.obj
 0002:00000708       __real@41b852c906000000    0000000180300708     Walking01_DDA3D_sfun.obj
 0002:00000710       __real@41e5c6e88e600000    0000000180300710     Walking01_DDA3D_sfun.obj
 0002:00000718       __real@41db268971400000    0000000180300718     Walking01_DDA3D_sfun.obj
 0002:00000720       __real@41e78b20a3000000    0000000180300720     Walking01_DDA3D_sfun.obj
 0002:00000728       __real@41e44bd65ca00000    0000000180300728     Walking01_DDA3D_sfun.obj
 0002:00000730       __real@41d7d17a3d400000    0000000180300730     c31_Walking01_DDA3D.obj
 0002:00000738       __real@41ec15224c600000    0000000180300738     c31_Walking01_DDA3D.obj
 0002:00000740       __real@41edac0dcd600000    0000000180300740     c31_Walking01_DDA3D.obj
 0002:00000748       __real@41ce9b0e78800000    0000000180300748     c31_Walking01_DDA3D.obj
 0002:00000750       __real@4000000000000000    0000000180300750     c31_Walking01_DDA3D.obj
 0002:00000758       __real@4024000000000000    0000000180300758     c31_Walking01_DDA3D.obj
 0002:00000760       __real@3ff0000000000000    0000000180300760     c31_Walking01_DDA3D.obj
 0002:00000768       __real@402a000000000000    0000000180300768     c31_Walking01_DDA3D.obj
 0002:00000770       __real@4066800000000000    0000000180300770     c31_Walking01_DDA3D.obj
 0002:00000778       __real@400921fb54442d18    0000000180300778     c31_Walking01_DDA3D.obj
 0002:00000780       __real@41dcaa962b000000    0000000180300780     c33_Walking01_DDA3D.obj
 0002:00000788       __real@41e64cb749200000    0000000180300788     c33_Walking01_DDA3D.obj
 0002:00000790       __real@41e98ffbf5000000    0000000180300790     c33_Walking01_DDA3D.obj
 0002:00000798       __real@41ee33b2e1800000    0000000180300798     c33_Walking01_DDA3D.obj
 0002:000007a0       __real@4008000000000000    00000001803007a0     c33_Walking01_DDA3D.obj
 0002:000007a8       __real@3f50624dd2f1a9fc    00000001803007a8     c33_Walking01_DDA3D.obj
 0002:000007b0       __real@401921fb54442d18    00000001803007b0     c33_Walking01_DDA3D.obj
 0002:000007c0       __mask@@NegDouble@         00000001803007c0     c33_Walking01_DDA3D.obj
 0002:000007d0       __real@4014000000000000    00000001803007d0     c33_Walking01_DDA3D.obj
 0002:000007d8       __real@4018000000000000    00000001803007d8     c33_Walking01_DDA3D.obj
 0002:000007e0       __real@bff0000000000000    00000001803007e0     c33_Walking01_DDA3D.obj
 0002:000007e8       __real@0000000000000000    00000001803007e8     c33_Walking01_DDA3D.obj
 0002:000007f0       __real@41e8144606a00000    00000001803007f0     c34_Walking01_DDA3D.obj
 0002:000007f8       __real@41e99be5dca00000    00000001803007f8     c34_Walking01_DDA3D.obj
 0002:00000800       __real@41e3224660000000    0000000180300800     c34_Walking01_DDA3D.obj
 0002:00000808       __real@41d4636cc2000000    0000000180300808     c34_Walking01_DDA3D.obj
 0002:00000810       __real@41e97af89a400000    0000000180300810     c35_Walking01_DDA3D.obj
 0002:00000818       __real@41e1c47081800000    0000000180300818     c35_Walking01_DDA3D.obj
 0002:00000820       __real@41b28fab4d000000    0000000180300820     c35_Walking01_DDA3D.obj
 0002:00000828       __real@41ec06a7b7a00000    0000000180300828     c35_Walking01_DDA3D.obj
 0002:00000830       __real@40c0000000000000    0000000180300830     c35_Walking01_DDA3D.obj
 0002:00000838       __real@404e000000000000    0000000180300838     c35_Walking01_DDA3D.obj
 0002:00000840       __real@41b10c576e000000    0000000180300840     c36_Walking01_DDA3D.obj
 0002:00000848       __real@41c69c3e4c800000    0000000180300848     c36_Walking01_DDA3D.obj
 0002:00000850       __real@41d1ba2983800000    0000000180300850     c36_Walking01_DDA3D.obj
 0002:00000858       __real@41d7e8f8e5400000    0000000180300858     c36_Walking01_DDA3D.obj
 0002:00000860       __real@3f459af348ce267c    0000000180300860     c36_Walking01_DDA3D.obj
 0002:00000868       __real@4065800000000000    0000000180300868     c36_Walking01_DDA3D.obj
 0002:00000870       __real@400599999999999a    0000000180300870     c36_Walking01_DDA3D.obj
 0002:00000878       __real@41c7882719000000    0000000180300878     c37_Walking01_DDA3D.obj
 0002:00000880       __real@41c37a5c05800000    0000000180300880     c37_Walking01_DDA3D.obj
 0002:00000888       __real@41e44a3f46e00000    0000000180300888     c37_Walking01_DDA3D.obj
 0002:00000890       __real@41e002c230e00000    0000000180300890     c37_Walking01_DDA3D.obj
 0002:00000898       __real@40a1f80000000000    0000000180300898     c37_Walking01_DDA3D.obj
 0002:000008a0       __real@40ac200000000000    00000001803008a0     c37_Walking01_DDA3D.obj
 0002:000008a8       __real@404e19999999999a    00000001803008a8     c37_Walking01_DDA3D.obj
 0002:000008b0       __real@4094500000000000    00000001803008b0     c37_Walking01_DDA3D.obj
 0002:000008b8       __real@41e418cbcc000000    00000001803008b8     c38_Walking01_DDA3D.obj
 0002:000008c0       __real@41e3b715cce00000    00000001803008c0     c38_Walking01_DDA3D.obj
 0002:000008c8       __real@41ec1b410aa00000    00000001803008c8     c38_Walking01_DDA3D.obj
 0002:000008d0       __real@41df0fd608c00000    00000001803008d0     c38_Walking01_DDA3D.obj
 0002:000008d8       __real@403e000000000000    00000001803008d8     c38_Walking01_DDA3D.obj
 0002:000008e0       __real@419341f388000000    00000001803008e0     c39_Walking01_DDA3D.obj
 0002:000008e8       __real@41ea38e53e600000    00000001803008e8     c39_Walking01_DDA3D.obj
 0002:000008f0       __real@41e4ce3bcbe00000    00000001803008f0     c39_Walking01_DDA3D.obj
 0002:000008f8       __real@41de29f854c00000    00000001803008f8     c39_Walking01_DDA3D.obj
 0002:00000900       __real@41f0000000000000    0000000180300900     c39_Walking01_DDA3D.obj
 0002:00000908       __real@41cd475674800000    0000000180300908     c40_Walking01_DDA3D.obj
 0002:00000910       __real@41beff525c000000    0000000180300910     c40_Walking01_DDA3D.obj
 0002:00000918       __real@41e4e04d98000000    0000000180300918     c40_Walking01_DDA3D.obj
 0002:00000920       __real@41dc9dd50e000000    0000000180300920     c40_Walking01_DDA3D.obj
 0002:00000928       __real@401c000000000000    0000000180300928     c40_Walking01_DDA3D.obj
 0002:00000930       __real@4022000000000000    0000000180300930     c40_Walking01_DDA3D.obj
 0002:00000938       __real@41b3f677a0000000    0000000180300938     c41_Walking01_DDA3D.obj
 0002:00000940       __real@41e9d1856f400000    0000000180300940     c41_Walking01_DDA3D.obj
 0002:00000948       __real@41cd5dcdf6000000    0000000180300948     c41_Walking01_DDA3D.obj
 0002:00000950       __real@41e54d063f000000    0000000180300950     c41_Walking01_DDA3D.obj
 0002:00000958       __real@41eedae2d4200000    0000000180300958     c43_Walking01_DDA3D.obj
 0002:00000960       __real@41e05de3ed000000    0000000180300960     c43_Walking01_DDA3D.obj
 0002:00000968       __real@41e25a1687000000    0000000180300968     c43_Walking01_DDA3D.obj
 0002:00000970       __real@41eb52cd5c400000    0000000180300970     c43_Walking01_DDA3D.obj
 0002:00000978       __real@4010000000000000    0000000180300978     c43_Walking01_DDA3D.obj
 0002:00000980       __real@4034000000000000    0000000180300980     c43_Walking01_DDA3D.obj
 0002:00000988       __real@41de256132400000    0000000180300988     c44_Walking01_DDA3D.obj
 0002:00000990       __real@41e0807f01400000    0000000180300990     c44_Walking01_DDA3D.obj
 0002:00000998       __real@41dfae9518400000    0000000180300998     c44_Walking01_DDA3D.obj
 0002:000009a0       __real@41d3215c5f000000    00000001803009a0     c44_Walking01_DDA3D.obj
 0002:000009a8       __real@41dbaa6129800000    00000001803009a8     c45_Walking01_DDA3D.obj
 0002:000009b0       __real@41e083a938600000    00000001803009b0     c45_Walking01_DDA3D.obj
 0002:000009b8       __real@41d9998262c00000    00000001803009b8     c45_Walking01_DDA3D.obj
 0002:000009c0       __real@41e018c7df000000    00000001803009c0     c45_Walking01_DDA3D.obj
 0002:000009c8       __real@41ef15330e200000    00000001803009c8     c47_Walking01_DDA3D.obj
 0002:000009d0       __real@41aaaf436c000000    00000001803009d0     c47_Walking01_DDA3D.obj
 0002:000009d8       __real@41e1b8c1e1a00000    00000001803009d8     c47_Walking01_DDA3D.obj
 0002:000009e0       __real@41e36f67bea00000    00000001803009e0     c47_Walking01_DDA3D.obj
 0002:000009e8       __real@41e101492ea00000    00000001803009e8     c48_Walking01_DDA3D.obj
 0002:000009f0       __real@41e4fa46e0a00000    00000001803009f0     c48_Walking01_DDA3D.obj
 0002:000009f8       __real@41a95e0396000000    00000001803009f8     c48_Walking01_DDA3D.obj
 0002:00000a00       __real@41d7675d1b000000    0000000180300a00     c48_Walking01_DDA3D.obj
 0002:00000a08       __real@41a81e1854000000    0000000180300a08     c49_Walking01_DDA3D.obj
 0002:00000a10       __real@41ddd86190800000    0000000180300a10     c49_Walking01_DDA3D.obj
 0002:00000a18       __real@41e790e747a00000    0000000180300a18     c49_Walking01_DDA3D.obj
 0002:00000a20       __real@41d5e16400400000    0000000180300a20     c49_Walking01_DDA3D.obj
 0002:00000a28       __real@3fe0000000000000    0000000180300a28     c49_Walking01_DDA3D.obj
 0002:00000a30       __real@3cb0000000000000    0000000180300a30     c49_Walking01_DDA3D.obj
 0002:00000a38       __real@4049000000000000    0000000180300a38     c49_Walking01_DDA3D.obj
 0002:00000a40       __real@41b229634f000000    0000000180300a40     c50_Walking01_DDA3D.obj
 0002:00000a48       __real@41ebf84b22a00000    0000000180300a48     c50_Walking01_DDA3D.obj
 0002:00000a50       __real@41c51e8eb3800000    0000000180300a50     c50_Walking01_DDA3D.obj
 0002:00000a58       __real@41d196b6b0400000    0000000180300a58     c50_Walking01_DDA3D.obj
 0002:00000a60       __real@41e1b820e2600000    0000000180300a60     c56_Walking01_DDA3D.obj
 0002:00000a68       __real@41e0b8fb29000000    0000000180300a68     c56_Walking01_DDA3D.obj
 0002:00000a70       __real@41eebc2fe5e00000    0000000180300a70     c56_Walking01_DDA3D.obj
 0002:00000a78       __real@41c784eb82000000    0000000180300a78     c56_Walking01_DDA3D.obj
 0002:00000a80       __real@41dcfb6726c00000    0000000180300a80     c57_Walking01_DDA3D.obj
 0002:00000a88       __real@41cca13b80000000    0000000180300a88     c57_Walking01_DDA3D.obj
 0002:00000a90       __real@41ee916590000000    0000000180300a90     c57_Walking01_DDA3D.obj
 0002:00000a98       __real@41dc2b1e7ac00000    0000000180300a98     c57_Walking01_DDA3D.obj
 0002:00000aa0       __real@4020000000000000    0000000180300aa0     c57_Walking01_DDA3D.obj
 0002:00000aa8       __real@41eb0fe4ba000000    0000000180300aa8     c58_Walking01_DDA3D.obj
 0002:00000ab0       __real@41dcb6e7a5800000    0000000180300ab0     c58_Walking01_DDA3D.obj
 0002:00000ab8       __real@41d730f753400000    0000000180300ab8     c58_Walking01_DDA3D.obj
 0002:00000ac0       __real@41e5767561200000    0000000180300ac0     c58_Walking01_DDA3D.obj
 0002:00000ac8       __real@4031000000000000    0000000180300ac8     c58_Walking01_DDA3D.obj
 0002:00000ad0       __real@402c000000000000    0000000180300ad0     c58_Walking01_DDA3D.obj
 0002:00000ad8       __real@8000000000000000    0000000180300ad8     c58_Walking01_DDA3D.obj
 0002:00000ae0       __real@4004f1a6c638d03f    0000000180300ae0     c58_Walking01_DDA3D.obj
 0002:00000ae8       __real@bfb999999999999a    0000000180300ae8     c58_Walking01_DDA3D.obj
 0002:00000af0       __real@3ff199999999999a    0000000180300af0     c58_Walking01_DDA3D.obj
 0002:00000af8       __real@3fb999999999999a    0000000180300af8     c58_Walking01_DDA3D.obj
 0002:00000b00       __real@4035000000000000    0000000180300b00     c58_Walking01_DDA3D.obj
 0002:00000b08       __real@4033000000000000    0000000180300b08     c58_Walking01_DDA3D.obj
 0002:00000b10       __real@4028000000000000    0000000180300b10     c58_Walking01_DDA3D.obj
 0002:00000b18       __real@c018000000000000    0000000180300b18     c58_Walking01_DDA3D.obj
 0002:00000b20       __real@3fefacbbfb61b966    0000000180300b20     c58_Walking01_DDA3D.obj
 0002:00000b28       __real@4022d97c7f3321d2    0000000180300b28     c58_Walking01_DDA3D.obj
 0002:00000b30       __real@4012d97c7f3321d2    0000000180300b30     c58_Walking01_DDA3D.obj
 0002:00000b38       __real@3f6760ca1a3ff233    0000000180300b38     c58_Walking01_DDA3D.obj
 0002:00000b40       __real@3f46f0068db8bac7    0000000180300b40     c58_Walking01_DDA3D.obj
 0002:00000b48       __real@403d10c0e60be308    0000000180300b48     c58_Walking01_DDA3D.obj
 0002:00000b50       __real@40398cc997feff4c    0000000180300b50     c58_Walking01_DDA3D.obj
 0002:00000b58       __real@4094a00000000000    0000000180300b58     c58_Walking01_DDA3D.obj
 0002:00000b60       __real@408fe00000000000    0000000180300b60     c58_Walking01_DDA3D.obj
 0002:00000b68       __real@3fcb9ffd60e94ee4    0000000180300b68     c58_Walking01_DDA3D.obj
 0002:00000b70       __real@4039ae147ae147ae    0000000180300b70     c58_Walking01_DDA3D.obj
 0002:00000b78       __real@3f9288ce703afb7f    0000000180300b78     c58_Walking01_DDA3D.obj
 0002:00000b80       __real@3fe358e219652bd4    0000000180300b80     c58_Walking01_DDA3D.obj
 0002:00000b88       __real@3ffbae147ae147ae    0000000180300b88     c58_Walking01_DDA3D.obj
 0002:00000b90       __real@40416a3d70a3d70a    0000000180300b90     c58_Walking01_DDA3D.obj
 0002:00000b98       __real@3fe999999999999a    0000000180300b98     c58_Walking01_DDA3D.obj
 0002:00000ba0       __real@3f9013a92a305532    0000000180300ba0     c58_Walking01_DDA3D.obj
 0002:00000ba8       __real@bf99e83e425aee63    0000000180300ba8     c58_Walking01_DDA3D.obj
 0002:00000bb0       __real@3fc375b813016484    0000000180300bb0     c58_Walking01_DDA3D.obj
 0002:00000bb8       __real@3fbd1b71758e2196    0000000180300bb8     c58_Walking01_DDA3D.obj
 0002:00000bc0       __real@3fc7525460aa64c3    0000000180300bc0     c58_Walking01_DDA3D.obj
 0002:00000bc8       __real@3fc25e353f7ced91    0000000180300bc8     c58_Walking01_DDA3D.obj
 0002:00000bd0       __real@3f89ce075f6fd220    0000000180300bd0     c58_Walking01_DDA3D.obj
 0002:00000bd8       __real@3f9205bc01a36e2f    0000000180300bd8     c58_Walking01_DDA3D.obj
 0002:00000be0       __real@3f9fbe76c8b43958    0000000180300be0     c58_Walking01_DDA3D.obj
 0002:00000be8       __real@3f9758e219652bd4    0000000180300be8     c58_Walking01_DDA3D.obj
 0002:00000bf0       __real@3fdb320d9945b6c3    0000000180300bf0     c58_Walking01_DDA3D.obj
 0002:00000bf8       __real@3fc87b352a843809    0000000180300bf8     c58_Walking01_DDA3D.obj
 0002:00000c00       __real@3fe5da7b0b391926    0000000180300c00     c58_Walking01_DDA3D.obj
 0002:00000c08       __real@3fe52aed1394317b    0000000180300c08     c58_Walking01_DDA3D.obj
 0002:00000c10       __real@3fdccccccccccccd    0000000180300c10     c58_Walking01_DDA3D.obj
 0002:00000c18       __real@40501b98c7e28240    0000000180300c18     c58_Walking01_DDA3D.obj
 0002:00000c20       __real@40239eb851eb851f    0000000180300c20     c58_Walking01_DDA3D.obj
 0002:00000c28       __real@3fd999999999999a    0000000180300c28     c58_Walking01_DDA3D.obj
 0002:00000c30       __real@4092c00000000000    0000000180300c30     c58_Walking01_DDA3D.obj
 0002:00000c38       __real@3fc51eb851eb851f    0000000180300c38     c58_Walking01_DDA3D.obj
 0002:00000c40       __real@4044000000000000    0000000180300c40     c58_Walking01_DDA3D.obj
 0002:00000c48       __real@c0239eb851eb851f    0000000180300c48     c58_Walking01_DDA3D.obj
 0002:00000c50       __real@40316a3d70a3d70a    0000000180300c50     c58_Walking01_DDA3D.obj
 0002:00000c58       __real@40350ee75ff609dd    0000000180300c58     c58_Walking01_DDA3D.obj
 0002:00000c60       __real@3fe42c6cdaf4adbd    0000000180300c60     c58_Walking01_DDA3D.obj
 0002:00000c68       __real@3fcccccccccccccd    0000000180300c68     c58_Walking01_DDA3D.obj
 0002:00000c70       __real@3fd0000000000000    0000000180300c70     c58_Walking01_DDA3D.obj
 0002:00000c78       __real@3ffeed8f3f2dde2b    0000000180300c78     c58_Walking01_DDA3D.obj
 0002:00000c80       __real@3ffd9d15441e98f6    0000000180300c80     c58_Walking01_DDA3D.obj
 0002:00000c88       __real@4031aea1f310f1da    0000000180300c88     c58_Walking01_DDA3D.obj
 0002:00000c90       __real@3f85f5558aa99a4b    0000000180300c90     c58_Walking01_DDA3D.obj
 0002:00000c98       __real@3fcb320d9945b6c3    0000000180300c98     c58_Walking01_DDA3D.obj
 0002:00000ca0       __real@bfe0000000000000    0000000180300ca0     c58_Walking01_DDA3D.obj
 0002:00000ca8       __real@bf9123299d29be62    0000000180300ca8     c58_Walking01_DDA3D.obj
 0002:00000cb0       __real@3fb84ced59095b9e    0000000180300cb0     c58_Walking01_DDA3D.obj
 0002:00000cb8       __real@3fb6087ca643cc08    0000000180300cb8     c58_Walking01_DDA3D.obj
 0002:00000cc0       __real@4031b68aeea06fc4    0000000180300cc0     c58_Walking01_DDA3D.obj
 0002:00000cc8       __real@3fcbe75b411d05d7    0000000180300cc8     c58_Walking01_DDA3D.obj
 0002:00000cd0       __real@3fc1638b68a2dc27    0000000180300cd0     c58_Walking01_DDA3D.obj
 0002:00000cd8       __real@3f9644a6f066a74c    0000000180300cd8     c58_Walking01_DDA3D.obj
 0002:00000ce0       __real@3fbfda83d5c930f2    0000000180300ce0     c58_Walking01_DDA3D.obj
 0002:00000ce8       __real@40301d03633230de    0000000180300ce8     c58_Walking01_DDA3D.obj
 0002:00000cf0       __real@3f75f5558aa99a4b    0000000180300cf0     c58_Walking01_DDA3D.obj
 0002:00000cf8       __real@bf8123299d29be62    0000000180300cf8     c58_Walking01_DDA3D.obj
 0002:00000d00       __real@3fa089c384aee3c9    0000000180300d00     c58_Walking01_DDA3D.obj
 0002:00000d08       __real@3f8644a6f066a74c    0000000180300d08     c58_Walking01_DDA3D.obj
 0002:00000d10       __real@3fafda83d5c930f2    0000000180300d10     c58_Walking01_DDA3D.obj
 0002:00000d18       __real@3f840a963ec2c9c4    0000000180300d18     c58_Walking01_DDA3D.obj
 0002:00000d20       __real@3fa84ced59095b9e    0000000180300d20     c58_Walking01_DDA3D.obj
 0002:00000d28       __real@40216a3d70a3d70a    0000000180300d28     c58_Walking01_DDA3D.obj
 0002:00000d30       __real@3fb87b352a843809    0000000180300d30     c58_Walking01_DDA3D.obj
 0002:00000d38       __real@3fd5da7b0b391926    0000000180300d38     c58_Walking01_DDA3D.obj
 0002:00000d40       __real@3fd52aed1394317b    0000000180300d40     c58_Walking01_DDA3D.obj
 0002:00000d48       __real@3fa6087ca643cc08    0000000180300d48     c58_Walking01_DDA3D.obj
 0002:00000d50       __real@3fd42c6cdaf4adbd    0000000180300d50     c58_Walking01_DDA3D.obj
 0002:00000d58       __real@402fff01625f97da    0000000180300d58     c58_Walking01_DDA3D.obj
 0002:00000d60       __real@40250ee75ff609dd    0000000180300d60     c58_Walking01_DDA3D.obj
 0002:00000d68       __real@4029ae147ae147ae    0000000180300d68     c58_Walking01_DDA3D.obj
 0002:00000d70       __real@3fb089c384aee3c9    0000000180300d70     c58_Walking01_DDA3D.obj
 0002:00000d78       __real@3f841d45d7376beb    0000000180300d78     c58_Walking01_DDA3D.obj
 0002:00000d80       __real@4019ae147ae147ae    0000000180300d80     c58_Walking01_DDA3D.obj
 0002:00000d88       __real@3fbb320d9945b6c3    0000000180300d88     c58_Walking01_DDA3D.obj
 0002:00000d90       __real@40010637418ab9d7    0000000180300d90     c58_Walking01_DDA3D.obj
 0002:00000d98       __real@3fa6594af4f0d845    0000000180300d98     c58_Walking01_DDA3D.obj
 0002:00000da0       __real@3fb6594af4f0d845    0000000180300da0     c58_Walking01_DDA3D.obj
 0002:00000da8       __real@bfd0c2f837b4a234    0000000180300da8     c58_Walking01_DDA3D.obj
 0002:00000db0       __real@3f961e4f765fd8ae    0000000180300db0     c58_Walking01_DDA3D.obj
 0002:00000db8       __real@41e565e594c00000    0000000180300db8     c59_Walking01_DDA3D.obj
 0002:00000dc0       __real@41b55bcb50000000    0000000180300dc0     c59_Walking01_DDA3D.obj
 0002:00000dc8       __real@41ca4a0ddc000000    0000000180300dc8     c59_Walking01_DDA3D.obj
 0002:00000dd0       __real@41e73e6485400000    0000000180300dd0     c59_Walking01_DDA3D.obj
 0002:00000dd8       __real@3ff999999999999a    0000000180300dd8     c59_Walking01_DDA3D.obj
 0002:00000de0       __real@3ff8000000000000    0000000180300de0     c59_Walking01_DDA3D.obj
 0002:00000de8       __real@3d95fd7fe1796496    0000000180300de8     c59_Walking01_DDA3D.obj
 0002:00000df0       __real@3f40624dd2f1a9fc    0000000180300df0     c59_Walking01_DDA3D.obj
 0002:00000df8       __real@3fe4cccccccccccd    0000000180300df8     c59_Walking01_DDA3D.obj
 0002:00000e00       __real@3fd6666666666666    0000000180300e00     c59_Walking01_DDA3D.obj
 0002:00000e08       __real@3fb99999999999a0    0000000180300e08     c59_Walking01_DDA3D.obj
 0002:00000e10       __real@3feccccccccccccd    0000000180300e10     c59_Walking01_DDA3D.obj
 0002:00000e18       __real@c08f400000000000    0000000180300e18     c59_Walking01_DDA3D.obj
 0002:00000e20       __real@bf947ae147ae147b    0000000180300e20     c59_Walking01_DDA3D.obj
 0002:00000e28       __real@3ff051eb851eb852    0000000180300e28     c59_Walking01_DDA3D.obj
 0002:00000e30       __real@3f947ae147ae147b    0000000180300e30     c59_Walking01_DDA3D.obj
 0002:00000e38       __real@3febec56d5cfaace    0000000180300e38     c59_Walking01_DDA3D.obj
 0002:00000e40       __real@3fc6594af4f0d845    0000000180300e40     c59_Walking01_DDA3D.obj
 0002:00000e48       __real@3ff4f141205bc01a    0000000180300e48     c59_Walking01_DDA3D.obj
 0002:00000e50       __real@3ff0c1bda5119ce1    0000000180300e50     c59_Walking01_DDA3D.obj
 0002:00000e58       __real@3fe8000000000000    0000000180300e58     c59_Walking01_DDA3D.obj
 0002:00000e60       __real@3fd657a786c22681    0000000180300e60     c59_Walking01_DDA3D.obj
 0002:00000e68       __real@3fdbec56d5cfaace    0000000180300e68     c59_Walking01_DDA3D.obj
 0002:00000e70       __real@bfb6594af4f0d845    0000000180300e70     c59_Walking01_DDA3D.obj
 0002:00000e78       __real@4032000000000000    0000000180300e78     c59_Walking01_DDA3D.obj
 0002:00000e80       __real@402e000000000000    0000000180300e80     c59_Walking01_DDA3D.obj
 0002:00000e88       __real@4340000000000000    0000000180300e88     c59_Walking01_DDA3D.obj
 0002:00000e90       __real@4004000000000000    0000000180300e90     c59_Walking01_DDA3D.obj
 0002:00000e98       __real@0000000000000001    0000000180300e98     c59_Walking01_DDA3D.obj
 0002:00000ea0       __real@0010000000000000    0000000180300ea0     c59_Walking01_DDA3D.obj
 0002:00000ea8       __real@41c0568608000000    0000000180300ea8     c60_Walking01_DDA3D.obj
 0002:00000eb0       __real@41eae36d27600000    0000000180300eb0     c60_Walking01_DDA3D.obj
 0002:00000eb8       __real@41e591896c600000    0000000180300eb8     c60_Walking01_DDA3D.obj
 0002:00000ec0       __real@41ef9c1f37a00000    0000000180300ec0     c60_Walking01_DDA3D.obj
 0002:00000ec8       __real@405e000000000000    0000000180300ec8     c60_Walking01_DDA3D.obj
 0002:00000ed0       __real@4026000000000000    0000000180300ed0     c60_Walking01_DDA3D.obj
 0002:00000ed8       __real@4044800000000000    0000000180300ed8     c60_Walking01_DDA3D.obj
 0002:00000ee0       __real@41e9032611a00000    0000000180300ee0     c92_Walking01_DDA3D.obj
 0002:00000ee8       __real@41d7aa6686800000    0000000180300ee8     c92_Walking01_DDA3D.obj
 0002:00000ef0       __real@41e7e4932ae00000    0000000180300ef0     c92_Walking01_DDA3D.obj
 0002:00000ef8       __real@41e50501ec200000    0000000180300ef8     c92_Walking01_DDA3D.obj
 0002:00000f00       __real@41edb38d32200000    0000000180300f00     c93_Walking01_DDA3D.obj
 0002:00000f08       __real@41ea69715b600000    0000000180300f08     c93_Walking01_DDA3D.obj
 0002:00000f10       __real@41e164cc4c000000    0000000180300f10     c93_Walking01_DDA3D.obj
 0002:00000f18       __real@41e68fa291a00000    0000000180300f18     c93_Walking01_DDA3D.obj
 0002:00000f20       DYNAMIC_DIMENSION_DEF      0000000180300f20     Walking01_DDA3D_sfun_registry.obj
 0002:00000f40       _ssBadLevel2InputAccessMsg 0000000180300f40     Walking01_DDA3D_sfun_registry.obj
 0002:000010d0       _ssBadLevel2DirectFeedMsg  00000001803010d0     Walking01_DDA3D_sfun_registry.obj
 0002:00001210       _ssBadLevel2DirectFeedSolutionMsg 0000000180301210     Walking01_DDA3D_sfun_registry.obj
 0002:00001280       _ssBadLevel2ZeroDirectFeedMsg 0000000180301280     Walking01_DDA3D_sfun_registry.obj
 0002:000013c0       _ssBadLevel2ZeroDirectFeedMsg2 00000001803013c0     Walking01_DDA3D_sfun_registry.obj
 0002:000014a8       __real@41602cbca0000000    00000001803014a8     Walking01_DDA3D_sfun_registry.obj
 0002:000014b0       _pDefaultRawDllMain        00000001803014b0     MSVCRT:crtdll.obj
 0002:000014b0       _pRawDllMain               00000001803014b0     MSVCRT:crtdll.obj
 0002:000014c8       ?ProcessDetach@NativeDll@<CrtImplementationDetails>@@0IB 00000001803014c8     MSVCRT:tncleanup.obj
 0002:000014cc       ?ProcessAttach@NativeDll@<CrtImplementationDetails>@@0IB 00000001803014cc     MSVCRT:tncleanup.obj
 0002:000014d0       ?ThreadAttach@NativeDll@<CrtImplementationDetails>@@0IB 00000001803014d0     MSVCRT:tncleanup.obj
 0002:000014d4       ?ThreadDetach@NativeDll@<CrtImplementationDetails>@@0IB 00000001803014d4     MSVCRT:tncleanup.obj
 0002:000014d8       ?ProcessVerifier@NativeDll@<CrtImplementationDetails>@@0IB 00000001803014d8     MSVCRT:tncleanup.obj
 0002:000014e0       __rtc_iaa                  00000001803014e0     MSVCRT:_initsect_.obj
 0002:000014e8       __rtc_izz                  00000001803014e8     MSVCRT:_initsect_.obj
 0002:000014f0       __rtc_taa                  00000001803014f0     MSVCRT:_initsect_.obj
 0002:000014f8       __rtc_tzz                  00000001803014f8     MSVCRT:_initsect_.obj
 0002:00005d84       __IMPORT_DESCRIPTOR_sf_runtime 0000000180305d84     sf_runtime:sf_runtime.dll
 0002:00005d98       __IMPORT_DESCRIPTOR_libmx  0000000180305d98     libmx:libmx.dll
 0002:00005dac       __IMPORT_DESCRIPTOR_libmex 0000000180305dac     libmex:libmex.dll
 0002:00005dc0       __IMPORT_DESCRIPTOR_libut  0000000180305dc0     libut:libut.dll
 0002:00005dd4       __IMPORT_DESCRIPTOR_libmwmathutil 0000000180305dd4     libmwmathutil:libmwmathutil.dll
 0002:00005de8       __IMPORT_DESCRIPTOR_libmwblas 0000000180305de8     libmwblas:libmwblas.dll
 0002:00005dfc       __IMPORT_DESCRIPTOR_MSVCR100 0000000180305dfc     MSVCRT:MSVCR100.dll
 0002:00005e10       __IMPORT_DESCRIPTOR_KERNEL32 0000000180305e10     kernel32:KERNEL32.dll
 0002:00005e24       __NULL_IMPORT_DESCRIPTOR   0000000180305e24     sf_runtime:sf_runtime.dll
 0003:000cf468       DYNAMIC_DIMENSION          00000001803d7468     Walking01_DDA3D_sfun_registry.obj
 0003:000d0068       __security_cookie          00000001803d8068     MSVCRT:gs_cookie.obj
 0003:000d0070       __security_cookie_complement 00000001803d8070     MSVCRT:gs_cookie.obj
 0003:000d0078       _fltused                   00000001803d8078     MSVCRT:dllsupp.obj
 0003:000d0080       __native_dllmain_reason    00000001803d8080     MSVCRT:natstart.obj
 0003:000d0084       __native_vcclrit_reason    00000001803d8084     MSVCRT:natstart.obj
 0003:000d0748       sfGlobalDebugInstanceStruct 00000001803d8748     Walking01_DDA3D_sfun_registry.obj
 0003:000d0cd0       ?__type_info_root_node@@3U__type_info_node@@A 00000001803d8cd0     MSVCRT:tncleanup.obj
 0003:000d0ce0       _Walking01_DDA3DMachineNumber_ 00000001803d8ce0     <common>
 0003:000d0ce4       __native_startup_state     00000001803d8ce4     <common>
 0003:000d0ce8       __native_startup_lock      00000001803d8ce8     <common>
 0003:000d0cf0       __onexitend                00000001803d8cf0     <common>
 0003:000d0cf8       __onexitbegin              00000001803d8cf8     <common>
 0003:000d0d00       __dyn_tls_init_callback    00000001803d8d00     <common>

 entry point at        0001:002fe4c8

 Static symbols

 0001:000037f0       c31_info_helper            00000001800047f0 f   c31_Walking01_DDA3D.obj
 0001:00008ae0       c31_emlrt_marshallOut      0000000180009ae0 f   c31_Walking01_DDA3D.obj
 0001:00008b70       c31_b_emlrt_marshallOut    0000000180009b70 f   c31_Walking01_DDA3D.obj
 0001:00009480       mdlProcessParameters_c31_Walking01_DDA3D 000000018000a480 f   c31_Walking01_DDA3D.obj
 0001:00009560       initialize_params_c31_Walking01_DDA3D 000000018000a560 f   c31_Walking01_DDA3D.obj
 0001:00009570       mdlSetWorkWidths_c31_Walking01_DDA3D 000000018000a570 f   c31_Walking01_DDA3D.obj
 0001:00009a70       sf_get_instance_specialization 000000018000aa70 f   c31_Walking01_DDA3D.obj
 0001:00009a80       mdlStart_c31_Walking01_DDA3D 000000018000aa80 f   c31_Walking01_DDA3D.obj
 0001:00009d00       init_dsm_address_info      000000018000ad00 f   c31_Walking01_DDA3D.obj
 0001:00009d10       init_simulink_io_address   000000018000ad10 f   c31_Walking01_DDA3D.obj
 0001:00009d80       sf_get_sim_state_info_c31_Walking01_DDA3D 000000018000ad80 f   c31_Walking01_DDA3D.obj
 0001:00009e40       chart_debug_initialization 000000018000ae40 f   c31_Walking01_DDA3D.obj
 0001:0000a6d0       init_script_number_translation 000000018000b6d0 f   c31_Walking01_DDA3D.obj
 0001:0000a6f0       c31_sf_marshallOut         000000018000b6f0 f   c31_Walking01_DDA3D.obj
 0001:0000a860       c31_sf_marshallIn          000000018000b860 f   c31_Walking01_DDA3D.obj
 0001:0000a990       c31_b_emlrt_marshallIn     000000018000b990 f   c31_Walking01_DDA3D.obj
 0001:0000aa90       c31_b_sf_marshallOut       000000018000ba90 f   c31_Walking01_DDA3D.obj
 0001:0000abb0       sf_opaque_initialize_c31_Walking01_DDA3D 000000018000bbb0 f   c31_Walking01_DDA3D.obj
 0001:0000abf0       initialize_c31_Walking01_DDA3D 000000018000bbf0 f   c31_Walking01_DDA3D.obj
 0001:0000ac40       sf_opaque_enable_c31_Walking01_DDA3D 000000018000bc40 f   c31_Walking01_DDA3D.obj
 0001:0000ac60       enable_c31_Walking01_DDA3D 000000018000bc60 f   c31_Walking01_DDA3D.obj
 0001:0000ac90       sf_opaque_disable_c31_Walking01_DDA3D 000000018000bc90 f   c31_Walking01_DDA3D.obj
 0001:0000acb0       disable_c31_Walking01_DDA3D 000000018000bcb0 f   c31_Walking01_DDA3D.obj
 0001:0000ace0       sf_opaque_gateway_c31_Walking01_DDA3D 000000018000bce0 f   c31_Walking01_DDA3D.obj
 0001:0000ad00       sf_gateway_c31_Walking01_DDA3D 000000018000bd00 f   c31_Walking01_DDA3D.obj
 0001:0000af90       c31_chartstep_c31_Walking01_DDA3D 000000018000bf90 f   c31_Walking01_DDA3D.obj
 0001:0000b9c0       c31_c_sf_marshallOut       000000018000c9c0 f   c31_Walking01_DDA3D.obj
 0001:0000ba70       c31_b_sf_marshallIn        000000018000ca70 f   c31_Walking01_DDA3D.obj
 0001:0000bb10       c31_c_emlrt_marshallIn     000000018000cb10 f   c31_Walking01_DDA3D.obj
 0001:0000bba0       c31_realmax                000000018000cba0 f   c31_Walking01_DDA3D.obj
 0001:0000bbb0       sf_opaque_get_sim_state_c31_Walking01_DDA3D 000000018000cbb0 f   c31_Walking01_DDA3D.obj
 0001:0000bc00       get_sim_state_c31_Walking01_DDA3D 000000018000cc00 f   c31_Walking01_DDA3D.obj
 0001:0000bdf0       sf_opaque_set_sim_state_c31_Walking01_DDA3D 000000018000cdf0 f   c31_Walking01_DDA3D.obj
 0001:0000be40       set_sim_state_c31_Walking01_DDA3D 000000018000ce40 f   c31_Walking01_DDA3D.obj
 0001:0000bf90       c31_update_debugger_state_c31_Walking01_DDA3D 000000018000cf90 f   c31_Walking01_DDA3D.obj
 0001:0000bfa0       c31_emlrt_marshallIn       000000018000cfa0 f   c31_Walking01_DDA3D.obj
 0001:0000c010       c31_e_emlrt_marshallIn     000000018000d010 f   c31_Walking01_DDA3D.obj
 0001:0000c070       c31_f_emlrt_marshallIn     000000018000d070 f   c31_Walking01_DDA3D.obj
 0001:0000c100       sf_opaque_terminate_c31_Walking01_DDA3D 000000018000d100 f   c31_Walking01_DDA3D.obj
 0001:0000c1a0       finalize_c31_Walking01_DDA3D 000000018000d1a0 f   c31_Walking01_DDA3D.obj
 0001:0000c1b0       sf_opaque_init_subchart_simstructs 000000018000d1b0 f   c31_Walking01_DDA3D.obj
 0001:0000c1d0       initSimStructsc31_Walking01_DDA3D 000000018000d1d0 f   c31_Walking01_DDA3D.obj
 0001:0000c1e0       mdlRTW_c31_Walking01_DDA3D 000000018000d1e0 f   c31_Walking01_DDA3D.obj
 0001:0000c290       c33_info_helper            000000018000d290 f   c33_Walking01_DDA3D.obj
 0001:00012b90       c33_emlrt_marshallOut      0000000180013b90 f   c33_Walking01_DDA3D.obj
 0001:00012c20       c33_b_emlrt_marshallOut    0000000180013c20 f   c33_Walking01_DDA3D.obj
 0001:00013f70       mdlProcessParameters_c33_Walking01_DDA3D 0000000180014f70 f   c33_Walking01_DDA3D.obj
 0001:00014050       initialize_params_c33_Walking01_DDA3D 0000000180015050 f   c33_Walking01_DDA3D.obj
 0001:00014060       mdlSetWorkWidths_c33_Walking01_DDA3D 0000000180015060 f   c33_Walking01_DDA3D.obj
 0001:00014620       sf_get_instance_specialization 0000000180015620 f   c33_Walking01_DDA3D.obj
 0001:00014630       mdlStart_c33_Walking01_DDA3D 0000000180015630 f   c33_Walking01_DDA3D.obj
 0001:000148b0       init_dsm_address_info      00000001800158b0 f   c33_Walking01_DDA3D.obj
 0001:000148c0       init_simulink_io_address   00000001800158c0 f   c33_Walking01_DDA3D.obj
 0001:00014a20       sf_get_sim_state_info_c33_Walking01_DDA3D 0000000180015a20 f   c33_Walking01_DDA3D.obj
 0001:00014ae0       chart_debug_initialization 0000000180015ae0 f   c33_Walking01_DDA3D.obj
 0001:000164e0       init_script_number_translation 00000001800174e0 f   c33_Walking01_DDA3D.obj
 0001:00016530       c33_sf_marshallOut         0000000180017530 f   c33_Walking01_DDA3D.obj
 0001:00016650       c33_sf_marshallIn          0000000180017650 f   c33_Walking01_DDA3D.obj
 0001:00016720       c33_b_emlrt_marshallIn     0000000180017720 f   c33_Walking01_DDA3D.obj
 0001:000167f0       c33_b_sf_marshallOut       00000001800177f0 f   c33_Walking01_DDA3D.obj
 0001:00016a00       c33_b_sf_marshallIn        0000000180017a00 f   c33_Walking01_DDA3D.obj
 0001:00016b70       c33_d_emlrt_marshallIn     0000000180017b70 f   c33_Walking01_DDA3D.obj
 0001:00016c70       c33_c_sf_marshallOut       0000000180017c70 f   c33_Walking01_DDA3D.obj
 0001:00016dd0       c33_c_sf_marshallIn        0000000180017dd0 f   c33_Walking01_DDA3D.obj
 0001:00016ed0       c33_f_emlrt_marshallIn     0000000180017ed0 f   c33_Walking01_DDA3D.obj
 0001:00016fc0       c33_d_sf_marshallOut       0000000180017fc0 f   c33_Walking01_DDA3D.obj
 0001:00017070       sf_opaque_initialize_c33_Walking01_DDA3D 0000000180018070 f   c33_Walking01_DDA3D.obj
 0001:000170b0       initialize_c33_Walking01_DDA3D 00000001800180b0 f   c33_Walking01_DDA3D.obj
 0001:00017100       sf_opaque_enable_c33_Walking01_DDA3D 0000000180018100 f   c33_Walking01_DDA3D.obj
 0001:00017120       enable_c33_Walking01_DDA3D 0000000180018120 f   c33_Walking01_DDA3D.obj
 0001:00017150       sf_opaque_disable_c33_Walking01_DDA3D 0000000180018150 f   c33_Walking01_DDA3D.obj
 0001:00017170       disable_c33_Walking01_DDA3D 0000000180018170 f   c33_Walking01_DDA3D.obj
 0001:000171a0       sf_opaque_gateway_c33_Walking01_DDA3D 00000001800181a0 f   c33_Walking01_DDA3D.obj
 0001:000171c0       sf_gateway_c33_Walking01_DDA3D 00000001800181c0 f   c33_Walking01_DDA3D.obj
 0001:00017830       c33_chartstep_c33_Walking01_DDA3D 0000000180018830 f   c33_Walking01_DDA3D.obj
 0001:00019ba0       c33_M_to_ZYX               000000018001aba0 f   c33_Walking01_DDA3D.obj
 0001:0001a180       c33_e_sf_marshallOut       000000018001b180 f   c33_Walking01_DDA3D.obj
 0001:0001a230       c33_d_sf_marshallIn        000000018001b230 f   c33_Walking01_DDA3D.obj
 0001:0001a2d0       c33_g_emlrt_marshallIn     000000018001b2d0 f   c33_Walking01_DDA3D.obj
 0001:0001a360       c33_eml_scalar_eg          000000018001b360 f   c33_Walking01_DDA3D.obj
 0001:0001a370       c33_threshold              000000018001b370 f   c33_Walking01_DDA3D.obj
 0001:0001a380       c33_eml_error              000000018001b380 f   c33_Walking01_DDA3D.obj
 0001:0001a570       c33_atan2                  000000018001b570 f   c33_Walking01_DDA3D.obj
 0001:0001a5c0       c33_squeeze                000000018001b5c0 f   c33_Walking01_DDA3D.obj
 0001:0001a5e0       c33_Rz                     000000018001b5e0 f   c33_Walking01_DDA3D.obj
 0001:0001aa30       c33_getYawRollover         000000018001ba30 f   c33_Walking01_DDA3D.obj
 0001:0001b6b0       c33_b_eml_scalar_eg        000000018001c6b0 f   c33_Walking01_DDA3D.obj
 0001:0001b6c0       c33_mldivide               000000018001c6c0 f   c33_Walking01_DDA3D.obj
 0001:0001e1b0       c33_rdivide                000000018001f1b0 f   c33_Walking01_DDA3D.obj
 0001:0001e210       c33_eml_warning            000000018001f210 f   c33_Walking01_DDA3D.obj
 0001:0001e350       sf_opaque_get_sim_state_c33_Walking01_DDA3D 000000018001f350 f   c33_Walking01_DDA3D.obj
 0001:0001e3a0       get_sim_state_c33_Walking01_DDA3D 000000018001f3a0 f   c33_Walking01_DDA3D.obj
 0001:0001e8e0       sf_opaque_set_sim_state_c33_Walking01_DDA3D 000000018001f8e0 f   c33_Walking01_DDA3D.obj
 0001:0001e930       set_sim_state_c33_Walking01_DDA3D 000000018001f930 f   c33_Walking01_DDA3D.obj
 0001:0001ec90       c33_update_debugger_state_c33_Walking01_DDA3D 000000018001fc90 f   c33_Walking01_DDA3D.obj
 0001:0001eca0       c33_emlrt_marshallIn       000000018001fca0 f   c33_Walking01_DDA3D.obj
 0001:0001ed10       c33_c_emlrt_marshallIn     000000018001fd10 f   c33_Walking01_DDA3D.obj
 0001:0001ed80       c33_e_emlrt_marshallIn     000000018001fd80 f   c33_Walking01_DDA3D.obj
 0001:0001edf0       c33_i_emlrt_marshallIn     000000018001fdf0 f   c33_Walking01_DDA3D.obj
 0001:0001ee50       c33_j_emlrt_marshallIn     000000018001fe50 f   c33_Walking01_DDA3D.obj
 0001:0001eee0       sf_opaque_terminate_c33_Walking01_DDA3D 000000018001fee0 f   c33_Walking01_DDA3D.obj
 0001:0001ef80       finalize_c33_Walking01_DDA3D 000000018001ff80 f   c33_Walking01_DDA3D.obj
 0001:0001ef90       sf_opaque_init_subchart_simstructs 000000018001ff90 f   c33_Walking01_DDA3D.obj
 0001:0001efb0       initSimStructsc33_Walking01_DDA3D 000000018001ffb0 f   c33_Walking01_DDA3D.obj
 0001:0001efc0       mdlRTW_c33_Walking01_DDA3D 000000018001ffc0 f   c33_Walking01_DDA3D.obj
 0001:0001f070       c34_info_helper            0000000180020070 f   c34_Walking01_DDA3D.obj
 0001:0001f740       c34_emlrt_marshallOut      0000000180020740 f   c34_Walking01_DDA3D.obj
 0001:0001f7d0       c34_b_emlrt_marshallOut    00000001800207d0 f   c34_Walking01_DDA3D.obj
 0001:00020b60       mdlProcessParameters_c34_Walking01_DDA3D 0000000180021b60 f   c34_Walking01_DDA3D.obj
 0001:00020c40       initialize_params_c34_Walking01_DDA3D 0000000180021c40 f   c34_Walking01_DDA3D.obj
 0001:00020d30       mdlSetWorkWidths_c34_Walking01_DDA3D 0000000180021d30 f   c34_Walking01_DDA3D.obj
 0001:000214f0       sf_get_instance_specialization 00000001800224f0 f   c34_Walking01_DDA3D.obj
 0001:00021500       sf_set_sfun_dwork_info     0000000180022500 f   c34_Walking01_DDA3D.obj
 0001:00021540       mdlStart_c34_Walking01_DDA3D 0000000180022540 f   c34_Walking01_DDA3D.obj
 0001:000217c0       init_dsm_address_info      00000001800227c0 f   c34_Walking01_DDA3D.obj
 0001:000217d0       init_simulink_io_address   00000001800227d0 f   c34_Walking01_DDA3D.obj
 0001:00021a00       sf_get_sim_state_info_c34_Walking01_DDA3D 0000000180022a00 f   c34_Walking01_DDA3D.obj
 0001:00021ac0       chart_debug_initialization 0000000180022ac0 f   c34_Walking01_DDA3D.obj
 0001:00023bf0       init_script_number_translation 0000000180024bf0 f   c34_Walking01_DDA3D.obj
 0001:00023c10       c34_sf_marshallOut         0000000180024c10 f   c34_Walking01_DDA3D.obj
 0001:00023cc0       c34_sf_marshallIn          0000000180024cc0 f   c34_Walking01_DDA3D.obj
 0001:00023d60       c34_emlrt_marshallIn       0000000180024d60 f   c34_Walking01_DDA3D.obj
 0001:00023df0       c34_b_sf_marshallOut       0000000180024df0 f   c34_Walking01_DDA3D.obj
 0001:00023ea0       c34_b_sf_marshallIn        0000000180024ea0 f   c34_Walking01_DDA3D.obj
 0001:00023f40       c34_c_emlrt_marshallIn     0000000180024f40 f   c34_Walking01_DDA3D.obj
 0001:00023fd0       c34_e_sf_marshallOut       0000000180024fd0 f   c34_Walking01_DDA3D.obj
 0001:000240f0       sf_opaque_initialize_c34_Walking01_DDA3D 00000001800250f0 f   c34_Walking01_DDA3D.obj
 0001:00024140       initialize_c34_Walking01_DDA3D 0000000180025140 f   c34_Walking01_DDA3D.obj
 0001:00024270       sf_check_dwork_consistency 0000000180025270 f   c34_Walking01_DDA3D.obj
 0001:00024360       sf_opaque_enable_c34_Walking01_DDA3D 0000000180025360 f   c34_Walking01_DDA3D.obj
 0001:00024380       enable_c34_Walking01_DDA3D 0000000180025380 f   c34_Walking01_DDA3D.obj
 0001:000243b0       sf_opaque_disable_c34_Walking01_DDA3D 00000001800253b0 f   c34_Walking01_DDA3D.obj
 0001:000243d0       disable_c34_Walking01_DDA3D 00000001800253d0 f   c34_Walking01_DDA3D.obj
 0001:00024400       sf_opaque_gateway_c34_Walking01_DDA3D 0000000180025400 f   c34_Walking01_DDA3D.obj
 0001:00024420       sf_gateway_c34_Walking01_DDA3D 0000000180025420 f   c34_Walking01_DDA3D.obj
 0001:00025d00       c34_set_sim_state_side_effects_c34_Walking01_DDA3D 0000000180026d00 f   c34_Walking01_DDA3D.obj
 0001:00025d90       c34_Run                    0000000180026d90 f   c34_Walking01_DDA3D.obj
 0001:000289c0       c34_exit_internal_Run      00000001800299c0 f   c34_Walking01_DDA3D.obj
 0001:00028de0       c34_check_error            0000000180029de0 f   c34_Walking01_DDA3D.obj
 0001:00029220       sf_opaque_ext_mode_exec_c34_Walking01_DDA3D 000000018002a220 f   c34_Walking01_DDA3D.obj
 0001:00029240       ext_mode_exec_c34_Walking01_DDA3D 000000018002a240 f   c34_Walking01_DDA3D.obj
 0001:00029260       c34_update_debugger_state_c34_Walking01_DDA3D 000000018002a260 f   c34_Walking01_DDA3D.obj
 0001:000299c0       sf_opaque_get_sim_state_c34_Walking01_DDA3D 000000018002a9c0 f   c34_Walking01_DDA3D.obj
 0001:00029a10       get_sim_state_c34_Walking01_DDA3D 000000018002aa10 f   c34_Walking01_DDA3D.obj
 0001:0002a040       sf_opaque_set_sim_state_c34_Walking01_DDA3D 000000018002b040 f   c34_Walking01_DDA3D.obj
 0001:0002a090       set_sim_state_c34_Walking01_DDA3D 000000018002b090 f   c34_Walking01_DDA3D.obj
 0001:0002a330       c34_b_emlrt_marshallIn     000000018002b330 f   c34_Walking01_DDA3D.obj
 0001:0002a3a0       c34_e_emlrt_marshallIn     000000018002b3a0 f   c34_Walking01_DDA3D.obj
 0001:0002a400       c34_f_emlrt_marshallIn     000000018002b400 f   c34_Walking01_DDA3D.obj
 0001:0002a490       c34_g_emlrt_marshallIn     000000018002b490 f   c34_Walking01_DDA3D.obj
 0001:0002a4f0       c34_h_emlrt_marshallIn     000000018002b4f0 f   c34_Walking01_DDA3D.obj
 0001:0002a580       c34_i_emlrt_marshallIn     000000018002b580 f   c34_Walking01_DDA3D.obj
 0001:0002a600       c34_j_emlrt_marshallIn     000000018002b600 f   c34_Walking01_DDA3D.obj
 0001:0002a660       sf_opaque_terminate_c34_Walking01_DDA3D 000000018002b660 f   c34_Walking01_DDA3D.obj
 0001:0002a700       finalize_c34_Walking01_DDA3D 000000018002b700 f   c34_Walking01_DDA3D.obj
 0001:0002a730       sf_opaque_init_subchart_simstructs 000000018002b730 f   c34_Walking01_DDA3D.obj
 0001:0002a750       initSimStructsc34_Walking01_DDA3D 000000018002b750 f   c34_Walking01_DDA3D.obj
 0001:0002a760       sf_get_sfun_dwork_checksum 000000018002b760 f   c34_Walking01_DDA3D.obj
 0001:0002a770       mdlRTW_c34_Walking01_DDA3D 000000018002b770 f   c34_Walking01_DDA3D.obj
 0001:0002a820       c35_info_helper            000000018002b820 f   c35_Walking01_DDA3D.obj
 0001:0002bdd0       c35_emlrt_marshallOut      000000018002cdd0 f   c35_Walking01_DDA3D.obj
 0001:0002be60       c35_b_emlrt_marshallOut    000000018002ce60 f   c35_Walking01_DDA3D.obj
 0001:0002c620       mdlProcessParameters_c35_Walking01_DDA3D 000000018002d620 f   c35_Walking01_DDA3D.obj
 0001:0002c700       initialize_params_c35_Walking01_DDA3D 000000018002d700 f   c35_Walking01_DDA3D.obj
 0001:0002c710       mdlSetWorkWidths_c35_Walking01_DDA3D 000000018002d710 f   c35_Walking01_DDA3D.obj
 0001:0002cbe0       sf_get_instance_specialization 000000018002dbe0 f   c35_Walking01_DDA3D.obj
 0001:0002cbf0       mdlStart_c35_Walking01_DDA3D 000000018002dbf0 f   c35_Walking01_DDA3D.obj
 0001:0002ce70       init_dsm_address_info      000000018002de70 f   c35_Walking01_DDA3D.obj
 0001:0002ce80       init_simulink_io_address   000000018002de80 f   c35_Walking01_DDA3D.obj
 0001:0002ced0       sf_get_sim_state_info_c35_Walking01_DDA3D 000000018002ded0 f   c35_Walking01_DDA3D.obj
 0001:0002cf90       chart_debug_initialization 000000018002df90 f   c35_Walking01_DDA3D.obj
 0001:0002d6c0       init_script_number_translation 000000018002e6c0 f   c35_Walking01_DDA3D.obj
 0001:0002d6e0       c35_sf_marshallOut         000000018002e6e0 f   c35_Walking01_DDA3D.obj
 0001:0002d850       c35_sf_marshallIn          000000018002e850 f   c35_Walking01_DDA3D.obj
 0001:0002d980       c35_b_emlrt_marshallIn     000000018002e980 f   c35_Walking01_DDA3D.obj
 0001:0002da80       sf_opaque_initialize_c35_Walking01_DDA3D 000000018002ea80 f   c35_Walking01_DDA3D.obj
 0001:0002dac0       initialize_c35_Walking01_DDA3D 000000018002eac0 f   c35_Walking01_DDA3D.obj
 0001:0002db10       sf_opaque_enable_c35_Walking01_DDA3D 000000018002eb10 f   c35_Walking01_DDA3D.obj
 0001:0002db30       enable_c35_Walking01_DDA3D 000000018002eb30 f   c35_Walking01_DDA3D.obj
 0001:0002db60       sf_opaque_disable_c35_Walking01_DDA3D 000000018002eb60 f   c35_Walking01_DDA3D.obj
 0001:0002db80       disable_c35_Walking01_DDA3D 000000018002eb80 f   c35_Walking01_DDA3D.obj
 0001:0002dbb0       sf_opaque_gateway_c35_Walking01_DDA3D 000000018002ebb0 f   c35_Walking01_DDA3D.obj
 0001:0002dbd0       sf_gateway_c35_Walking01_DDA3D 000000018002ebd0 f   c35_Walking01_DDA3D.obj
 0001:0002e2f0       c35_b_sf_marshallOut       000000018002f2f0 f   c35_Walking01_DDA3D.obj
 0001:0002e3a0       c35_b_sf_marshallIn        000000018002f3a0 f   c35_Walking01_DDA3D.obj
 0001:0002e440       c35_c_emlrt_marshallIn     000000018002f440 f   c35_Walking01_DDA3D.obj
 0001:0002e4d0       sf_opaque_get_sim_state_c35_Walking01_DDA3D 000000018002f4d0 f   c35_Walking01_DDA3D.obj
 0001:0002e520       get_sim_state_c35_Walking01_DDA3D 000000018002f520 f   c35_Walking01_DDA3D.obj
 0001:0002e720       sf_opaque_set_sim_state_c35_Walking01_DDA3D 000000018002f720 f   c35_Walking01_DDA3D.obj
 0001:0002e770       set_sim_state_c35_Walking01_DDA3D 000000018002f770 f   c35_Walking01_DDA3D.obj
 0001:0002e8b0       c35_update_debugger_state_c35_Walking01_DDA3D 000000018002f8b0 f   c35_Walking01_DDA3D.obj
 0001:0002e8c0       c35_emlrt_marshallIn       000000018002f8c0 f   c35_Walking01_DDA3D.obj
 0001:0002e930       c35_e_emlrt_marshallIn     000000018002f930 f   c35_Walking01_DDA3D.obj
 0001:0002e990       c35_f_emlrt_marshallIn     000000018002f990 f   c35_Walking01_DDA3D.obj
 0001:0002ea20       sf_opaque_terminate_c35_Walking01_DDA3D 000000018002fa20 f   c35_Walking01_DDA3D.obj
 0001:0002eac0       finalize_c35_Walking01_DDA3D 000000018002fac0 f   c35_Walking01_DDA3D.obj
 0001:0002ead0       sf_opaque_init_subchart_simstructs 000000018002fad0 f   c35_Walking01_DDA3D.obj
 0001:0002eaf0       initSimStructsc35_Walking01_DDA3D 000000018002faf0 f   c35_Walking01_DDA3D.obj
 0001:0002eb00       mdlRTW_c35_Walking01_DDA3D 000000018002fb00 f   c35_Walking01_DDA3D.obj
 0001:0002ebb0       c36_info_helper            000000018002fbb0 f   c36_Walking01_DDA3D.obj
 0001:00030160       c36_emlrt_marshallOut      0000000180031160 f   c36_Walking01_DDA3D.obj
 0001:000301f0       c36_b_emlrt_marshallOut    00000001800311f0 f   c36_Walking01_DDA3D.obj
 0001:000309b0       mdlProcessParameters_c36_Walking01_DDA3D 00000001800319b0 f   c36_Walking01_DDA3D.obj
 0001:00030a90       initialize_params_c36_Walking01_DDA3D 0000000180031a90 f   c36_Walking01_DDA3D.obj
 0001:00030aa0       mdlSetWorkWidths_c36_Walking01_DDA3D 0000000180031aa0 f   c36_Walking01_DDA3D.obj
 0001:00030f70       sf_get_instance_specialization 0000000180031f70 f   c36_Walking01_DDA3D.obj
 0001:00030f80       mdlStart_c36_Walking01_DDA3D 0000000180031f80 f   c36_Walking01_DDA3D.obj
 0001:00031200       init_dsm_address_info      0000000180032200 f   c36_Walking01_DDA3D.obj
 0001:00031210       init_simulink_io_address   0000000180032210 f   c36_Walking01_DDA3D.obj
 0001:00031260       sf_get_sim_state_info_c36_Walking01_DDA3D 0000000180032260 f   c36_Walking01_DDA3D.obj
 0001:00031320       chart_debug_initialization 0000000180032320 f   c36_Walking01_DDA3D.obj
 0001:00031a50       init_script_number_translation 0000000180032a50 f   c36_Walking01_DDA3D.obj
 0001:00031a70       c36_sf_marshallOut         0000000180032a70 f   c36_Walking01_DDA3D.obj
 0001:00031bf0       c36_sf_marshallIn          0000000180032bf0 f   c36_Walking01_DDA3D.obj
 0001:00031d00       c36_b_emlrt_marshallIn     0000000180032d00 f   c36_Walking01_DDA3D.obj
 0001:00031df0       sf_opaque_initialize_c36_Walking01_DDA3D 0000000180032df0 f   c36_Walking01_DDA3D.obj
 0001:00031e30       initialize_c36_Walking01_DDA3D 0000000180032e30 f   c36_Walking01_DDA3D.obj
 0001:00031e80       sf_opaque_enable_c36_Walking01_DDA3D 0000000180032e80 f   c36_Walking01_DDA3D.obj
 0001:00031ea0       enable_c36_Walking01_DDA3D 0000000180032ea0 f   c36_Walking01_DDA3D.obj
 0001:00031ed0       sf_opaque_disable_c36_Walking01_DDA3D 0000000180032ed0 f   c36_Walking01_DDA3D.obj
 0001:00031ef0       disable_c36_Walking01_DDA3D 0000000180032ef0 f   c36_Walking01_DDA3D.obj
 0001:00031f20       sf_opaque_gateway_c36_Walking01_DDA3D 0000000180032f20 f   c36_Walking01_DDA3D.obj
 0001:00031f40       sf_gateway_c36_Walking01_DDA3D 0000000180032f40 f   c36_Walking01_DDA3D.obj
 0001:00032790       c36_b_sf_marshallOut       0000000180033790 f   c36_Walking01_DDA3D.obj
 0001:00032840       c36_b_sf_marshallIn        0000000180033840 f   c36_Walking01_DDA3D.obj
 0001:000328e0       c36_c_emlrt_marshallIn     00000001800338e0 f   c36_Walking01_DDA3D.obj
 0001:00032970       sf_opaque_get_sim_state_c36_Walking01_DDA3D 0000000180033970 f   c36_Walking01_DDA3D.obj
 0001:000329c0       get_sim_state_c36_Walking01_DDA3D 00000001800339c0 f   c36_Walking01_DDA3D.obj
 0001:00032bb0       sf_opaque_set_sim_state_c36_Walking01_DDA3D 0000000180033bb0 f   c36_Walking01_DDA3D.obj
 0001:00032c00       set_sim_state_c36_Walking01_DDA3D 0000000180033c00 f   c36_Walking01_DDA3D.obj
 0001:00032d30       c36_update_debugger_state_c36_Walking01_DDA3D 0000000180033d30 f   c36_Walking01_DDA3D.obj
 0001:00032d40       c36_emlrt_marshallIn       0000000180033d40 f   c36_Walking01_DDA3D.obj
 0001:00032db0       c36_e_emlrt_marshallIn     0000000180033db0 f   c36_Walking01_DDA3D.obj
 0001:00032e10       c36_f_emlrt_marshallIn     0000000180033e10 f   c36_Walking01_DDA3D.obj
 0001:00032ea0       sf_opaque_terminate_c36_Walking01_DDA3D 0000000180033ea0 f   c36_Walking01_DDA3D.obj
 0001:00032f40       finalize_c36_Walking01_DDA3D 0000000180033f40 f   c36_Walking01_DDA3D.obj
 0001:00032f50       sf_opaque_init_subchart_simstructs 0000000180033f50 f   c36_Walking01_DDA3D.obj
 0001:00032f70       initSimStructsc36_Walking01_DDA3D 0000000180033f70 f   c36_Walking01_DDA3D.obj
 0001:00032f80       mdlRTW_c36_Walking01_DDA3D 0000000180033f80 f   c36_Walking01_DDA3D.obj
 0001:00033030       c37_info_helper            0000000180034030 f   c37_Walking01_DDA3D.obj
 0001:000345e0       c37_emlrt_marshallOut      00000001800355e0 f   c37_Walking01_DDA3D.obj
 0001:00034670       c37_b_emlrt_marshallOut    0000000180035670 f   c37_Walking01_DDA3D.obj
 0001:00034e30       mdlProcessParameters_c37_Walking01_DDA3D 0000000180035e30 f   c37_Walking01_DDA3D.obj
 0001:00034f10       initialize_params_c37_Walking01_DDA3D 0000000180035f10 f   c37_Walking01_DDA3D.obj
 0001:00034f20       mdlSetWorkWidths_c37_Walking01_DDA3D 0000000180035f20 f   c37_Walking01_DDA3D.obj
 0001:000353f0       sf_get_instance_specialization 00000001800363f0 f   c37_Walking01_DDA3D.obj
 0001:00035400       mdlStart_c37_Walking01_DDA3D 0000000180036400 f   c37_Walking01_DDA3D.obj
 0001:00035680       init_dsm_address_info      0000000180036680 f   c37_Walking01_DDA3D.obj
 0001:00035690       init_simulink_io_address   0000000180036690 f   c37_Walking01_DDA3D.obj
 0001:000356e0       sf_get_sim_state_info_c37_Walking01_DDA3D 00000001800366e0 f   c37_Walking01_DDA3D.obj
 0001:000357a0       chart_debug_initialization 00000001800367a0 f   c37_Walking01_DDA3D.obj
 0001:00035ed0       init_script_number_translation 0000000180036ed0 f   c37_Walking01_DDA3D.obj
 0001:00035ef0       c37_sf_marshallOut         0000000180036ef0 f   c37_Walking01_DDA3D.obj
 0001:00036050       c37_sf_marshallIn          0000000180037050 f   c37_Walking01_DDA3D.obj
 0001:00036160       c37_b_emlrt_marshallIn     0000000180037160 f   c37_Walking01_DDA3D.obj
 0001:00036250       sf_opaque_initialize_c37_Walking01_DDA3D 0000000180037250 f   c37_Walking01_DDA3D.obj
 0001:00036290       initialize_c37_Walking01_DDA3D 0000000180037290 f   c37_Walking01_DDA3D.obj
 0001:000362e0       sf_opaque_enable_c37_Walking01_DDA3D 00000001800372e0 f   c37_Walking01_DDA3D.obj
 0001:00036300       enable_c37_Walking01_DDA3D 0000000180037300 f   c37_Walking01_DDA3D.obj
 0001:00036330       sf_opaque_disable_c37_Walking01_DDA3D 0000000180037330 f   c37_Walking01_DDA3D.obj
 0001:00036350       disable_c37_Walking01_DDA3D 0000000180037350 f   c37_Walking01_DDA3D.obj
 0001:00036380       sf_opaque_gateway_c37_Walking01_DDA3D 0000000180037380 f   c37_Walking01_DDA3D.obj
 0001:000363a0       sf_gateway_c37_Walking01_DDA3D 00000001800373a0 f   c37_Walking01_DDA3D.obj
 0001:00036c90       c37_b_sf_marshallOut       0000000180037c90 f   c37_Walking01_DDA3D.obj
 0001:00036d40       c37_b_sf_marshallIn        0000000180037d40 f   c37_Walking01_DDA3D.obj
 0001:00036de0       c37_c_emlrt_marshallIn     0000000180037de0 f   c37_Walking01_DDA3D.obj
 0001:00036e70       sf_opaque_get_sim_state_c37_Walking01_DDA3D 0000000180037e70 f   c37_Walking01_DDA3D.obj
 0001:00036ec0       get_sim_state_c37_Walking01_DDA3D 0000000180037ec0 f   c37_Walking01_DDA3D.obj
 0001:000370b0       sf_opaque_set_sim_state_c37_Walking01_DDA3D 00000001800380b0 f   c37_Walking01_DDA3D.obj
 0001:00037100       set_sim_state_c37_Walking01_DDA3D 0000000180038100 f   c37_Walking01_DDA3D.obj
 0001:00037230       c37_update_debugger_state_c37_Walking01_DDA3D 0000000180038230 f   c37_Walking01_DDA3D.obj
 0001:00037240       c37_emlrt_marshallIn       0000000180038240 f   c37_Walking01_DDA3D.obj
 0001:000372b0       c37_e_emlrt_marshallIn     00000001800382b0 f   c37_Walking01_DDA3D.obj
 0001:00037310       c37_f_emlrt_marshallIn     0000000180038310 f   c37_Walking01_DDA3D.obj
 0001:000373a0       sf_opaque_terminate_c37_Walking01_DDA3D 00000001800383a0 f   c37_Walking01_DDA3D.obj
 0001:00037440       finalize_c37_Walking01_DDA3D 0000000180038440 f   c37_Walking01_DDA3D.obj
 0001:00037450       sf_opaque_init_subchart_simstructs 0000000180038450 f   c37_Walking01_DDA3D.obj
 0001:00037470       initSimStructsc37_Walking01_DDA3D 0000000180038470 f   c37_Walking01_DDA3D.obj
 0001:00037480       mdlRTW_c37_Walking01_DDA3D 0000000180038480 f   c37_Walking01_DDA3D.obj
 0001:00037530       c38_info_helper            0000000180038530 f   c38_Walking01_DDA3D.obj
 0001:00038ae0       c38_emlrt_marshallOut      0000000180039ae0 f   c38_Walking01_DDA3D.obj
 0001:00038b70       c38_b_emlrt_marshallOut    0000000180039b70 f   c38_Walking01_DDA3D.obj
 0001:00039330       mdlProcessParameters_c38_Walking01_DDA3D 000000018003a330 f   c38_Walking01_DDA3D.obj
 0001:00039410       initialize_params_c38_Walking01_DDA3D 000000018003a410 f   c38_Walking01_DDA3D.obj
 0001:00039420       mdlSetWorkWidths_c38_Walking01_DDA3D 000000018003a420 f   c38_Walking01_DDA3D.obj
 0001:000398f0       sf_get_instance_specialization 000000018003a8f0 f   c38_Walking01_DDA3D.obj
 0001:00039900       mdlStart_c38_Walking01_DDA3D 000000018003a900 f   c38_Walking01_DDA3D.obj
 0001:00039b80       init_dsm_address_info      000000018003ab80 f   c38_Walking01_DDA3D.obj
 0001:00039b90       init_simulink_io_address   000000018003ab90 f   c38_Walking01_DDA3D.obj
 0001:00039be0       sf_get_sim_state_info_c38_Walking01_DDA3D 000000018003abe0 f   c38_Walking01_DDA3D.obj
 0001:00039ca0       chart_debug_initialization 000000018003aca0 f   c38_Walking01_DDA3D.obj
 0001:0003a3d0       init_script_number_translation 000000018003b3d0 f   c38_Walking01_DDA3D.obj
 0001:0003a3f0       c38_sf_marshallOut         000000018003b3f0 f   c38_Walking01_DDA3D.obj
 0001:0003a580       c38_sf_marshallIn          000000018003b580 f   c38_Walking01_DDA3D.obj
 0001:0003a6a0       c38_b_emlrt_marshallIn     000000018003b6a0 f   c38_Walking01_DDA3D.obj
 0001:0003a7a0       sf_opaque_initialize_c38_Walking01_DDA3D 000000018003b7a0 f   c38_Walking01_DDA3D.obj
 0001:0003a7e0       initialize_c38_Walking01_DDA3D 000000018003b7e0 f   c38_Walking01_DDA3D.obj
 0001:0003a830       sf_opaque_enable_c38_Walking01_DDA3D 000000018003b830 f   c38_Walking01_DDA3D.obj
 0001:0003a850       enable_c38_Walking01_DDA3D 000000018003b850 f   c38_Walking01_DDA3D.obj
 0001:0003a880       sf_opaque_disable_c38_Walking01_DDA3D 000000018003b880 f   c38_Walking01_DDA3D.obj
 0001:0003a8a0       disable_c38_Walking01_DDA3D 000000018003b8a0 f   c38_Walking01_DDA3D.obj
 0001:0003a8d0       sf_opaque_gateway_c38_Walking01_DDA3D 000000018003b8d0 f   c38_Walking01_DDA3D.obj
 0001:0003a8f0       sf_gateway_c38_Walking01_DDA3D 000000018003b8f0 f   c38_Walking01_DDA3D.obj
 0001:0003b1c0       c38_b_sf_marshallOut       000000018003c1c0 f   c38_Walking01_DDA3D.obj
 0001:0003b270       c38_b_sf_marshallIn        000000018003c270 f   c38_Walking01_DDA3D.obj
 0001:0003b310       c38_c_emlrt_marshallIn     000000018003c310 f   c38_Walking01_DDA3D.obj
 0001:0003b3a0       sf_opaque_get_sim_state_c38_Walking01_DDA3D 000000018003c3a0 f   c38_Walking01_DDA3D.obj
 0001:0003b3f0       get_sim_state_c38_Walking01_DDA3D 000000018003c3f0 f   c38_Walking01_DDA3D.obj
 0001:0003b5f0       sf_opaque_set_sim_state_c38_Walking01_DDA3D 000000018003c5f0 f   c38_Walking01_DDA3D.obj
 0001:0003b640       set_sim_state_c38_Walking01_DDA3D 000000018003c640 f   c38_Walking01_DDA3D.obj
 0001:0003b7a0       c38_update_debugger_state_c38_Walking01_DDA3D 000000018003c7a0 f   c38_Walking01_DDA3D.obj
 0001:0003b7b0       c38_emlrt_marshallIn       000000018003c7b0 f   c38_Walking01_DDA3D.obj
 0001:0003b820       c38_e_emlrt_marshallIn     000000018003c820 f   c38_Walking01_DDA3D.obj
 0001:0003b880       c38_f_emlrt_marshallIn     000000018003c880 f   c38_Walking01_DDA3D.obj
 0001:0003b910       sf_opaque_terminate_c38_Walking01_DDA3D 000000018003c910 f   c38_Walking01_DDA3D.obj
 0001:0003b9b0       finalize_c38_Walking01_DDA3D 000000018003c9b0 f   c38_Walking01_DDA3D.obj
 0001:0003b9c0       sf_opaque_init_subchart_simstructs 000000018003c9c0 f   c38_Walking01_DDA3D.obj
 0001:0003b9e0       initSimStructsc38_Walking01_DDA3D 000000018003c9e0 f   c38_Walking01_DDA3D.obj
 0001:0003b9f0       mdlRTW_c38_Walking01_DDA3D 000000018003c9f0 f   c38_Walking01_DDA3D.obj
 0001:0003baa0       c39_info_helper            000000018003caa0 f   c39_Walking01_DDA3D.obj
 0001:0003e3f0       c39_emlrt_marshallOut      000000018003f3f0 f   c39_Walking01_DDA3D.obj
 0001:0003e480       c39_b_emlrt_marshallOut    000000018003f480 f   c39_Walking01_DDA3D.obj
 0001:0003ec40       mdlProcessParameters_c39_Walking01_DDA3D 000000018003fc40 f   c39_Walking01_DDA3D.obj
 0001:0003ed20       initialize_params_c39_Walking01_DDA3D 000000018003fd20 f   c39_Walking01_DDA3D.obj
 0001:0003ed30       mdlSetWorkWidths_c39_Walking01_DDA3D 000000018003fd30 f   c39_Walking01_DDA3D.obj
 0001:0003f200       sf_get_instance_specialization 0000000180040200 f   c39_Walking01_DDA3D.obj
 0001:0003f210       mdlStart_c39_Walking01_DDA3D 0000000180040210 f   c39_Walking01_DDA3D.obj
 0001:0003f490       init_dsm_address_info      0000000180040490 f   c39_Walking01_DDA3D.obj
 0001:0003f4a0       init_simulink_io_address   00000001800404a0 f   c39_Walking01_DDA3D.obj
 0001:0003f4f0       sf_get_sim_state_info_c39_Walking01_DDA3D 00000001800404f0 f   c39_Walking01_DDA3D.obj
 0001:0003f5b0       chart_debug_initialization 00000001800405b0 f   c39_Walking01_DDA3D.obj
 0001:0003fe20       init_script_number_translation 0000000180040e20 f   c39_Walking01_DDA3D.obj
 0001:0003fe70       c39_sf_marshallOut         0000000180040e70 f   c39_Walking01_DDA3D.obj
 0001:0003ff20       c39_sf_marshallIn          0000000180040f20 f   c39_Walking01_DDA3D.obj
 0001:0003ffc0       c39_b_emlrt_marshallIn     0000000180040fc0 f   c39_Walking01_DDA3D.obj
 0001:00040050       c39_b_sf_marshallOut       0000000180041050 f   c39_Walking01_DDA3D.obj
 0001:000401c0       sf_opaque_initialize_c39_Walking01_DDA3D 00000001800411c0 f   c39_Walking01_DDA3D.obj
 0001:00040200       initialize_c39_Walking01_DDA3D 0000000180041200 f   c39_Walking01_DDA3D.obj
 0001:00040250       sf_opaque_enable_c39_Walking01_DDA3D 0000000180041250 f   c39_Walking01_DDA3D.obj
 0001:00040270       enable_c39_Walking01_DDA3D 0000000180041270 f   c39_Walking01_DDA3D.obj
 0001:000402a0       sf_opaque_disable_c39_Walking01_DDA3D 00000001800412a0 f   c39_Walking01_DDA3D.obj
 0001:000402c0       disable_c39_Walking01_DDA3D 00000001800412c0 f   c39_Walking01_DDA3D.obj
 0001:000402f0       sf_opaque_gateway_c39_Walking01_DDA3D 00000001800412f0 f   c39_Walking01_DDA3D.obj
 0001:00040310       sf_gateway_c39_Walking01_DDA3D 0000000180041310 f   c39_Walking01_DDA3D.obj
 0001:00040ba0       c39_EncodeSwitches         0000000180041ba0 f   c39_Walking01_DDA3D.obj
 0001:000413b0       c39_c_sf_marshallOut       00000001800423b0 f   c39_Walking01_DDA3D.obj
 0001:00041520       c39_b_sf_marshallIn        0000000180042520 f   c39_Walking01_DDA3D.obj
 0001:00041620       c39_c_emlrt_marshallIn     0000000180042620 f   c39_Walking01_DDA3D.obj
 0001:00041710       c39_d_sf_marshallOut       0000000180042710 f   c39_Walking01_DDA3D.obj
 0001:000417c0       c39_c_sf_marshallIn        00000001800427c0 f   c39_Walking01_DDA3D.obj
 0001:00041860       c39_d_emlrt_marshallIn     0000000180042860 f   c39_Walking01_DDA3D.obj
 0001:000418f0       sf_opaque_get_sim_state_c39_Walking01_DDA3D 00000001800428f0 f   c39_Walking01_DDA3D.obj
 0001:00041940       get_sim_state_c39_Walking01_DDA3D 0000000180042940 f   c39_Walking01_DDA3D.obj
 0001:00041ad0       sf_opaque_set_sim_state_c39_Walking01_DDA3D 0000000180042ad0 f   c39_Walking01_DDA3D.obj
 0001:00041b20       set_sim_state_c39_Walking01_DDA3D 0000000180042b20 f   c39_Walking01_DDA3D.obj
 0001:00041be0       c39_update_debugger_state_c39_Walking01_DDA3D 0000000180042be0 f   c39_Walking01_DDA3D.obj
 0001:00041bf0       c39_emlrt_marshallIn       0000000180042bf0 f   c39_Walking01_DDA3D.obj
 0001:00041c60       c39_f_emlrt_marshallIn     0000000180042c60 f   c39_Walking01_DDA3D.obj
 0001:00041cc0       c39_g_emlrt_marshallIn     0000000180042cc0 f   c39_Walking01_DDA3D.obj
 0001:00041d50       sf_opaque_terminate_c39_Walking01_DDA3D 0000000180042d50 f   c39_Walking01_DDA3D.obj
 0001:00041df0       finalize_c39_Walking01_DDA3D 0000000180042df0 f   c39_Walking01_DDA3D.obj
 0001:00041e00       sf_opaque_init_subchart_simstructs 0000000180042e00 f   c39_Walking01_DDA3D.obj
 0001:00041e20       initSimStructsc39_Walking01_DDA3D 0000000180042e20 f   c39_Walking01_DDA3D.obj
 0001:00041e30       mdlRTW_c39_Walking01_DDA3D 0000000180042e30 f   c39_Walking01_DDA3D.obj
 0001:00041ee0       c40_info_helper            0000000180042ee0 f   c40_Walking01_DDA3D.obj
 0001:0004a540       c40_emlrt_marshallOut      000000018004b540 f   c40_Walking01_DDA3D.obj
 0001:0004a5d0       c40_b_emlrt_marshallOut    000000018004b5d0 f   c40_Walking01_DDA3D.obj
 0001:0004ad90       mdlProcessParameters_c40_Walking01_DDA3D 000000018004bd90 f   c40_Walking01_DDA3D.obj
 0001:0004ae70       initialize_params_c40_Walking01_DDA3D 000000018004be70 f   c40_Walking01_DDA3D.obj
 0001:0004ae80       mdlSetWorkWidths_c40_Walking01_DDA3D 000000018004be80 f   c40_Walking01_DDA3D.obj
 0001:0004b350       sf_get_instance_specialization 000000018004c350 f   c40_Walking01_DDA3D.obj
 0001:0004b360       mdlStart_c40_Walking01_DDA3D 000000018004c360 f   c40_Walking01_DDA3D.obj
 0001:0004b5e0       init_dsm_address_info      000000018004c5e0 f   c40_Walking01_DDA3D.obj
 0001:0004b5f0       init_simulink_io_address   000000018004c5f0 f   c40_Walking01_DDA3D.obj
 0001:0004b640       sf_get_sim_state_info_c40_Walking01_DDA3D 000000018004c640 f   c40_Walking01_DDA3D.obj
 0001:0004b700       chart_debug_initialization 000000018004c700 f   c40_Walking01_DDA3D.obj
 0001:0004be30       init_script_number_translation 000000018004ce30 f   c40_Walking01_DDA3D.obj
 0001:0004be50       c40_sf_marshallOut         000000018004ce50 f   c40_Walking01_DDA3D.obj
 0001:0004bfd0       c40_sf_marshallIn          000000018004cfd0 f   c40_Walking01_DDA3D.obj
 0001:0004c100       c40_b_emlrt_marshallIn     000000018004d100 f   c40_Walking01_DDA3D.obj
 0001:0004c1f0       c40_b_sf_marshallOut       000000018004d1f0 f   c40_Walking01_DDA3D.obj
 0001:0004c360       sf_opaque_initialize_c40_Walking01_DDA3D 000000018004d360 f   c40_Walking01_DDA3D.obj
 0001:0004c3a0       initialize_c40_Walking01_DDA3D 000000018004d3a0 f   c40_Walking01_DDA3D.obj
 0001:0004c3f0       sf_opaque_enable_c40_Walking01_DDA3D 000000018004d3f0 f   c40_Walking01_DDA3D.obj
 0001:0004c410       enable_c40_Walking01_DDA3D 000000018004d410 f   c40_Walking01_DDA3D.obj
 0001:0004c440       sf_opaque_disable_c40_Walking01_DDA3D 000000018004d440 f   c40_Walking01_DDA3D.obj
 0001:0004c460       disable_c40_Walking01_DDA3D 000000018004d460 f   c40_Walking01_DDA3D.obj
 0001:0004c490       sf_opaque_gateway_c40_Walking01_DDA3D 000000018004d490 f   c40_Walking01_DDA3D.obj
 0001:0004c4b0       sf_gateway_c40_Walking01_DDA3D 000000018004d4b0 f   c40_Walking01_DDA3D.obj
 0001:0004cc20       c40_c_sf_marshallOut       000000018004dc20 f   c40_Walking01_DDA3D.obj
 0001:0004ccd0       c40_b_sf_marshallIn        000000018004dcd0 f   c40_Walking01_DDA3D.obj
 0001:0004cd70       c40_c_emlrt_marshallIn     000000018004dd70 f   c40_Walking01_DDA3D.obj
 0001:0004ce00       c40_d_sf_marshallOut       000000018004de00 f   c40_Walking01_DDA3D.obj
 0001:0004cf70       c40_c_sf_marshallIn        000000018004df70 f   c40_Walking01_DDA3D.obj
 0001:0004d070       c40_d_emlrt_marshallIn     000000018004e070 f   c40_Walking01_DDA3D.obj
 0001:0004d160       sf_opaque_get_sim_state_c40_Walking01_DDA3D 000000018004e160 f   c40_Walking01_DDA3D.obj
 0001:0004d1b0       get_sim_state_c40_Walking01_DDA3D 000000018004e1b0 f   c40_Walking01_DDA3D.obj
 0001:0004d3a0       sf_opaque_set_sim_state_c40_Walking01_DDA3D 000000018004e3a0 f   c40_Walking01_DDA3D.obj
 0001:0004d3f0       set_sim_state_c40_Walking01_DDA3D 000000018004e3f0 f   c40_Walking01_DDA3D.obj
 0001:0004d550       c40_update_debugger_state_c40_Walking01_DDA3D 000000018004e550 f   c40_Walking01_DDA3D.obj
 0001:0004d560       c40_emlrt_marshallIn       000000018004e560 f   c40_Walking01_DDA3D.obj
 0001:0004d5d0       c40_f_emlrt_marshallIn     000000018004e5d0 f   c40_Walking01_DDA3D.obj
 0001:0004d630       c40_g_emlrt_marshallIn     000000018004e630 f   c40_Walking01_DDA3D.obj
 0001:0004d6c0       sf_opaque_terminate_c40_Walking01_DDA3D 000000018004e6c0 f   c40_Walking01_DDA3D.obj
 0001:0004d760       finalize_c40_Walking01_DDA3D 000000018004e760 f   c40_Walking01_DDA3D.obj
 0001:0004d770       sf_opaque_init_subchart_simstructs 000000018004e770 f   c40_Walking01_DDA3D.obj
 0001:0004d790       initSimStructsc40_Walking01_DDA3D 000000018004e790 f   c40_Walking01_DDA3D.obj
 0001:0004d7a0       mdlRTW_c40_Walking01_DDA3D 000000018004e7a0 f   c40_Walking01_DDA3D.obj
 0001:0004d850       c41_info_helper            000000018004e850 f   c41_Walking01_DDA3D.obj
 0001:00055eb0       c41_emlrt_marshallOut      0000000180056eb0 f   c41_Walking01_DDA3D.obj
 0001:00055f40       c41_b_emlrt_marshallOut    0000000180056f40 f   c41_Walking01_DDA3D.obj
 0001:00056700       mdlProcessParameters_c41_Walking01_DDA3D 0000000180057700 f   c41_Walking01_DDA3D.obj
 0001:000567e0       initialize_params_c41_Walking01_DDA3D 00000001800577e0 f   c41_Walking01_DDA3D.obj
 0001:000567f0       mdlSetWorkWidths_c41_Walking01_DDA3D 00000001800577f0 f   c41_Walking01_DDA3D.obj
 0001:00056cc0       sf_get_instance_specialization 0000000180057cc0 f   c41_Walking01_DDA3D.obj
 0001:00056cd0       mdlStart_c41_Walking01_DDA3D 0000000180057cd0 f   c41_Walking01_DDA3D.obj
 0001:00056f50       init_dsm_address_info      0000000180057f50 f   c41_Walking01_DDA3D.obj
 0001:00056f60       init_simulink_io_address   0000000180057f60 f   c41_Walking01_DDA3D.obj
 0001:00056fb0       sf_get_sim_state_info_c41_Walking01_DDA3D 0000000180057fb0 f   c41_Walking01_DDA3D.obj
 0001:00057070       chart_debug_initialization 0000000180058070 f   c41_Walking01_DDA3D.obj
 0001:000577a0       init_script_number_translation 00000001800587a0 f   c41_Walking01_DDA3D.obj
 0001:000577c0       c41_sf_marshallOut         00000001800587c0 f   c41_Walking01_DDA3D.obj
 0001:00057920       c41_sf_marshallIn          0000000180058920 f   c41_Walking01_DDA3D.obj
 0001:00057a20       c41_b_emlrt_marshallIn     0000000180058a20 f   c41_Walking01_DDA3D.obj
 0001:00057b10       c41_b_sf_marshallOut       0000000180058b10 f   c41_Walking01_DDA3D.obj
 0001:00057c60       sf_opaque_initialize_c41_Walking01_DDA3D 0000000180058c60 f   c41_Walking01_DDA3D.obj
 0001:00057ca0       initialize_c41_Walking01_DDA3D 0000000180058ca0 f   c41_Walking01_DDA3D.obj
 0001:00057cf0       sf_opaque_enable_c41_Walking01_DDA3D 0000000180058cf0 f   c41_Walking01_DDA3D.obj
 0001:00057d10       enable_c41_Walking01_DDA3D 0000000180058d10 f   c41_Walking01_DDA3D.obj
 0001:00057d40       sf_opaque_disable_c41_Walking01_DDA3D 0000000180058d40 f   c41_Walking01_DDA3D.obj
 0001:00057d60       disable_c41_Walking01_DDA3D 0000000180058d60 f   c41_Walking01_DDA3D.obj
 0001:00057d90       sf_opaque_gateway_c41_Walking01_DDA3D 0000000180058d90 f   c41_Walking01_DDA3D.obj
 0001:00057db0       sf_gateway_c41_Walking01_DDA3D 0000000180058db0 f   c41_Walking01_DDA3D.obj
 0001:00058520       c41_c_sf_marshallOut       0000000180059520 f   c41_Walking01_DDA3D.obj
 0001:000585d0       c41_b_sf_marshallIn        00000001800595d0 f   c41_Walking01_DDA3D.obj
 0001:00058670       c41_c_emlrt_marshallIn     0000000180059670 f   c41_Walking01_DDA3D.obj
 0001:00058700       c41_d_sf_marshallOut       0000000180059700 f   c41_Walking01_DDA3D.obj
 0001:00058850       c41_c_sf_marshallIn        0000000180059850 f   c41_Walking01_DDA3D.obj
 0001:00058940       c41_d_emlrt_marshallIn     0000000180059940 f   c41_Walking01_DDA3D.obj
 0001:00058a30       sf_opaque_get_sim_state_c41_Walking01_DDA3D 0000000180059a30 f   c41_Walking01_DDA3D.obj
 0001:00058a80       get_sim_state_c41_Walking01_DDA3D 0000000180059a80 f   c41_Walking01_DDA3D.obj
 0001:00058c60       sf_opaque_set_sim_state_c41_Walking01_DDA3D 0000000180059c60 f   c41_Walking01_DDA3D.obj
 0001:00058cb0       set_sim_state_c41_Walking01_DDA3D 0000000180059cb0 f   c41_Walking01_DDA3D.obj
 0001:00058dc0       c41_update_debugger_state_c41_Walking01_DDA3D 0000000180059dc0 f   c41_Walking01_DDA3D.obj
 0001:00058dd0       c41_emlrt_marshallIn       0000000180059dd0 f   c41_Walking01_DDA3D.obj
 0001:00058e40       c41_f_emlrt_marshallIn     0000000180059e40 f   c41_Walking01_DDA3D.obj
 0001:00058ea0       c41_g_emlrt_marshallIn     0000000180059ea0 f   c41_Walking01_DDA3D.obj
 0001:00058f30       sf_opaque_terminate_c41_Walking01_DDA3D 0000000180059f30 f   c41_Walking01_DDA3D.obj
 0001:00058fd0       finalize_c41_Walking01_DDA3D 0000000180059fd0 f   c41_Walking01_DDA3D.obj
 0001:00058fe0       sf_opaque_init_subchart_simstructs 0000000180059fe0 f   c41_Walking01_DDA3D.obj
 0001:00059000       initSimStructsc41_Walking01_DDA3D 000000018005a000 f   c41_Walking01_DDA3D.obj
 0001:00059010       mdlRTW_c41_Walking01_DDA3D 000000018005a010 f   c41_Walking01_DDA3D.obj
 0001:000590c0       c42_info_helper            000000018005a0c0 f   c42_Walking01_DDA3D.obj
 0001:00061720       c42_emlrt_marshallOut      0000000180062720 f   c42_Walking01_DDA3D.obj
 0001:000617b0       c42_b_emlrt_marshallOut    00000001800627b0 f   c42_Walking01_DDA3D.obj
 0001:00061f70       mdlProcessParameters_c42_Walking01_DDA3D 0000000180062f70 f   c42_Walking01_DDA3D.obj
 0001:00062050       initialize_params_c42_Walking01_DDA3D 0000000180063050 f   c42_Walking01_DDA3D.obj
 0001:00062060       mdlSetWorkWidths_c42_Walking01_DDA3D 0000000180063060 f   c42_Walking01_DDA3D.obj
 0001:00062530       sf_get_instance_specialization 0000000180063530 f   c42_Walking01_DDA3D.obj
 0001:00062540       mdlStart_c42_Walking01_DDA3D 0000000180063540 f   c42_Walking01_DDA3D.obj
 0001:000627c0       init_dsm_address_info      00000001800637c0 f   c42_Walking01_DDA3D.obj
 0001:000627d0       init_simulink_io_address   00000001800637d0 f   c42_Walking01_DDA3D.obj
 0001:00062820       sf_get_sim_state_info_c42_Walking01_DDA3D 0000000180063820 f   c42_Walking01_DDA3D.obj
 0001:000628e0       chart_debug_initialization 00000001800638e0 f   c42_Walking01_DDA3D.obj
 0001:00063010       init_script_number_translation 0000000180064010 f   c42_Walking01_DDA3D.obj
 0001:00063030       c42_sf_marshallOut         0000000180064030 f   c42_Walking01_DDA3D.obj
 0001:00063190       c42_sf_marshallIn          0000000180064190 f   c42_Walking01_DDA3D.obj
 0001:00063290       c42_b_emlrt_marshallIn     0000000180064290 f   c42_Walking01_DDA3D.obj
 0001:00063380       c42_b_sf_marshallOut       0000000180064380 f   c42_Walking01_DDA3D.obj
 0001:000634e0       sf_opaque_initialize_c42_Walking01_DDA3D 00000001800644e0 f   c42_Walking01_DDA3D.obj
 0001:00063520       initialize_c42_Walking01_DDA3D 0000000180064520 f   c42_Walking01_DDA3D.obj
 0001:00063570       sf_opaque_enable_c42_Walking01_DDA3D 0000000180064570 f   c42_Walking01_DDA3D.obj
 0001:00063590       enable_c42_Walking01_DDA3D 0000000180064590 f   c42_Walking01_DDA3D.obj
 0001:000635c0       sf_opaque_disable_c42_Walking01_DDA3D 00000001800645c0 f   c42_Walking01_DDA3D.obj
 0001:000635e0       disable_c42_Walking01_DDA3D 00000001800645e0 f   c42_Walking01_DDA3D.obj
 0001:00063610       sf_opaque_gateway_c42_Walking01_DDA3D 0000000180064610 f   c42_Walking01_DDA3D.obj
 0001:00063630       sf_gateway_c42_Walking01_DDA3D 0000000180064630 f   c42_Walking01_DDA3D.obj
 0001:00063d80       c42_c_sf_marshallOut       0000000180064d80 f   c42_Walking01_DDA3D.obj
 0001:00063e30       c42_b_sf_marshallIn        0000000180064e30 f   c42_Walking01_DDA3D.obj
 0001:00063ed0       c42_c_emlrt_marshallIn     0000000180064ed0 f   c42_Walking01_DDA3D.obj
 0001:00063f60       c42_d_sf_marshallOut       0000000180064f60 f   c42_Walking01_DDA3D.obj
 0001:000640b0       c42_c_sf_marshallIn        00000001800650b0 f   c42_Walking01_DDA3D.obj
 0001:000641a0       c42_d_emlrt_marshallIn     00000001800651a0 f   c42_Walking01_DDA3D.obj
 0001:00064290       sf_opaque_get_sim_state_c42_Walking01_DDA3D 0000000180065290 f   c42_Walking01_DDA3D.obj
 0001:000642e0       get_sim_state_c42_Walking01_DDA3D 00000001800652e0 f   c42_Walking01_DDA3D.obj
 0001:000644e0       sf_opaque_set_sim_state_c42_Walking01_DDA3D 00000001800654e0 f   c42_Walking01_DDA3D.obj
 0001:00064530       set_sim_state_c42_Walking01_DDA3D 0000000180065530 f   c42_Walking01_DDA3D.obj
 0001:00064640       c42_update_debugger_state_c42_Walking01_DDA3D 0000000180065640 f   c42_Walking01_DDA3D.obj
 0001:00064650       c42_emlrt_marshallIn       0000000180065650 f   c42_Walking01_DDA3D.obj
 0001:000646c0       c42_f_emlrt_marshallIn     00000001800656c0 f   c42_Walking01_DDA3D.obj
 0001:00064720       c42_g_emlrt_marshallIn     0000000180065720 f   c42_Walking01_DDA3D.obj
 0001:000647b0       sf_opaque_terminate_c42_Walking01_DDA3D 00000001800657b0 f   c42_Walking01_DDA3D.obj
 0001:00064850       finalize_c42_Walking01_DDA3D 0000000180065850 f   c42_Walking01_DDA3D.obj
 0001:00064860       sf_opaque_init_subchart_simstructs 0000000180065860 f   c42_Walking01_DDA3D.obj
 0001:00064880       initSimStructsc42_Walking01_DDA3D 0000000180065880 f   c42_Walking01_DDA3D.obj
 0001:00064890       mdlRTW_c42_Walking01_DDA3D 0000000180065890 f   c42_Walking01_DDA3D.obj
 0001:000659f0       mdlProcessParameters_c43_Walking01_DDA3D 00000001800669f0 f   c43_Walking01_DDA3D.obj
 0001:00065ad0       initialize_params_c43_Walking01_DDA3D 0000000180066ad0 f   c43_Walking01_DDA3D.obj
 0001:00065ae0       mdlSetWorkWidths_c43_Walking01_DDA3D 0000000180066ae0 f   c43_Walking01_DDA3D.obj
 0001:00066070       sf_get_instance_specialization 0000000180067070 f   c43_Walking01_DDA3D.obj
 0001:00066080       sf_set_sfun_dwork_info     0000000180067080 f   c43_Walking01_DDA3D.obj
 0001:000660c0       mdlStart_c43_Walking01_DDA3D 00000001800670c0 f   c43_Walking01_DDA3D.obj
 0001:00066340       init_dsm_address_info      0000000180067340 f   c43_Walking01_DDA3D.obj
 0001:00066350       init_simulink_io_address   0000000180067350 f   c43_Walking01_DDA3D.obj
 0001:00066510       sf_get_sim_state_info_c43_Walking01_DDA3D 0000000180067510 f   c43_Walking01_DDA3D.obj
 0001:000665d0       chart_debug_initialization 00000001800675d0 f   c43_Walking01_DDA3D.obj
 0001:00069500       init_script_number_translation 000000018006a500 f   c43_Walking01_DDA3D.obj
 0001:00069520       c43_sf_marshallOut         000000018006a520 f   c43_Walking01_DDA3D.obj
 0001:000695d0       c43_sf_marshallIn          000000018006a5d0 f   c43_Walking01_DDA3D.obj
 0001:00069670       c43_b_emlrt_marshallIn     000000018006a670 f   c43_Walking01_DDA3D.obj
 0001:00069700       c43_b_sf_marshallOut       000000018006a700 f   c43_Walking01_DDA3D.obj
 0001:000697b0       sf_opaque_initialize_c43_Walking01_DDA3D 000000018006a7b0 f   c43_Walking01_DDA3D.obj
 0001:00069800       initialize_c43_Walking01_DDA3D 000000018006a800 f   c43_Walking01_DDA3D.obj
 0001:00069890       sf_check_dwork_consistency 000000018006a890 f   c43_Walking01_DDA3D.obj
 0001:00069980       sf_opaque_enable_c43_Walking01_DDA3D 000000018006a980 f   c43_Walking01_DDA3D.obj
 0001:000699a0       enable_c43_Walking01_DDA3D 000000018006a9a0 f   c43_Walking01_DDA3D.obj
 0001:000699d0       sf_opaque_disable_c43_Walking01_DDA3D 000000018006a9d0 f   c43_Walking01_DDA3D.obj
 0001:000699f0       disable_c43_Walking01_DDA3D 000000018006a9f0 f   c43_Walking01_DDA3D.obj
 0001:00069a20       sf_opaque_gateway_c43_Walking01_DDA3D 000000018006aa20 f   c43_Walking01_DDA3D.obj
 0001:00069a40       sf_gateway_c43_Walking01_DDA3D 000000018006aa40 f   c43_Walking01_DDA3D.obj
 0001:0006c270       c43_set_sim_state_side_effects_c43_Walking01_DDA3D 000000018006d270 f   c43_Walking01_DDA3D.obj
 0001:0006c2a0       c43_Initialization         000000018006d2a0 f   c43_Walking01_DDA3D.obj
 0001:00070d20       c43_exit_internal_Initialization 0000000180071d20 f   c43_Walking01_DDA3D.obj
 0001:00071140       c43_b_sf_marshallIn        0000000180072140 f   c43_Walking01_DDA3D.obj
 0001:000711e0       c43_c_emlrt_marshallIn     00000001800721e0 f   c43_Walking01_DDA3D.obj
 0001:00071270       c43_updateDataWrittenToVector 0000000180072270 f   c43_Walking01_DDA3D.obj
 0001:00071300       c43_errorIfDataNotWrittenToFcn 0000000180072300 f   c43_Walking01_DDA3D.obj
 0001:000713d0       sf_opaque_ext_mode_exec_c43_Walking01_DDA3D 00000001800723d0 f   c43_Walking01_DDA3D.obj
 0001:000713f0       ext_mode_exec_c43_Walking01_DDA3D 00000001800723f0 f   c43_Walking01_DDA3D.obj
 0001:00071410       c43_update_debugger_state_c43_Walking01_DDA3D 0000000180072410 f   c43_Walking01_DDA3D.obj
 0001:00071de0       sf_opaque_get_sim_state_c43_Walking01_DDA3D 0000000180072de0 f   c43_Walking01_DDA3D.obj
 0001:00071e30       get_sim_state_c43_Walking01_DDA3D 0000000180072e30 f   c43_Walking01_DDA3D.obj
 0001:000723c0       sf_opaque_set_sim_state_c43_Walking01_DDA3D 00000001800733c0 f   c43_Walking01_DDA3D.obj
 0001:00072410       set_sim_state_c43_Walking01_DDA3D 0000000180073410 f   c43_Walking01_DDA3D.obj
 0001:000726a0       c43_emlrt_marshallIn       00000001800736a0 f   c43_Walking01_DDA3D.obj
 0001:00072710       c43_e_emlrt_marshallIn     0000000180073710 f   c43_Walking01_DDA3D.obj
 0001:00072770       c43_f_emlrt_marshallIn     0000000180073770 f   c43_Walking01_DDA3D.obj
 0001:00072800       c43_g_emlrt_marshallIn     0000000180073800 f   c43_Walking01_DDA3D.obj
 0001:00072870       c43_h_emlrt_marshallIn     0000000180073870 f   c43_Walking01_DDA3D.obj
 0001:00072930       c43_i_emlrt_marshallIn     0000000180073930 f   c43_Walking01_DDA3D.obj
 0001:000729b0       c43_j_emlrt_marshallIn     00000001800739b0 f   c43_Walking01_DDA3D.obj
 0001:00072a10       sf_opaque_terminate_c43_Walking01_DDA3D 0000000180073a10 f   c43_Walking01_DDA3D.obj
 0001:00072ab0       finalize_c43_Walking01_DDA3D 0000000180073ab0 f   c43_Walking01_DDA3D.obj
 0001:00072ae0       sf_opaque_init_subchart_simstructs 0000000180073ae0 f   c43_Walking01_DDA3D.obj
 0001:00072b00       initSimStructsc43_Walking01_DDA3D 0000000180073b00 f   c43_Walking01_DDA3D.obj
 0001:00072b10       sf_get_sfun_dwork_checksum 0000000180073b10 f   c43_Walking01_DDA3D.obj
 0001:00072b20       mdlRTW_c43_Walking01_DDA3D 0000000180073b20 f   c43_Walking01_DDA3D.obj
 0001:00073c80       mdlProcessParameters_c44_Walking01_DDA3D 0000000180074c80 f   c44_Walking01_DDA3D.obj
 0001:00073d60       initialize_params_c44_Walking01_DDA3D 0000000180074d60 f   c44_Walking01_DDA3D.obj
 0001:00073d70       mdlSetWorkWidths_c44_Walking01_DDA3D 0000000180074d70 f   c44_Walking01_DDA3D.obj
 0001:00074300       sf_get_instance_specialization 0000000180075300 f   c44_Walking01_DDA3D.obj
 0001:00074310       sf_set_sfun_dwork_info     0000000180075310 f   c44_Walking01_DDA3D.obj
 0001:00074350       mdlStart_c44_Walking01_DDA3D 0000000180075350 f   c44_Walking01_DDA3D.obj
 0001:000745d0       init_dsm_address_info      00000001800755d0 f   c44_Walking01_DDA3D.obj
 0001:000745e0       init_simulink_io_address   00000001800755e0 f   c44_Walking01_DDA3D.obj
 0001:000747a0       sf_get_sim_state_info_c44_Walking01_DDA3D 00000001800757a0 f   c44_Walking01_DDA3D.obj
 0001:00074860       chart_debug_initialization 0000000180075860 f   c44_Walking01_DDA3D.obj
 0001:00077790       init_script_number_translation 0000000180078790 f   c44_Walking01_DDA3D.obj
 0001:000777b0       c44_sf_marshallOut         00000001800787b0 f   c44_Walking01_DDA3D.obj
 0001:00077860       c44_sf_marshallIn          0000000180078860 f   c44_Walking01_DDA3D.obj
 0001:00077900       c44_b_emlrt_marshallIn     0000000180078900 f   c44_Walking01_DDA3D.obj
 0001:00077990       c44_b_sf_marshallOut       0000000180078990 f   c44_Walking01_DDA3D.obj
 0001:00077a40       sf_opaque_initialize_c44_Walking01_DDA3D 0000000180078a40 f   c44_Walking01_DDA3D.obj
 0001:00077a90       initialize_c44_Walking01_DDA3D 0000000180078a90 f   c44_Walking01_DDA3D.obj
 0001:00077b20       sf_check_dwork_consistency 0000000180078b20 f   c44_Walking01_DDA3D.obj
 0001:00077c10       sf_opaque_enable_c44_Walking01_DDA3D 0000000180078c10 f   c44_Walking01_DDA3D.obj
 0001:00077c30       enable_c44_Walking01_DDA3D 0000000180078c30 f   c44_Walking01_DDA3D.obj
 0001:00077c60       sf_opaque_disable_c44_Walking01_DDA3D 0000000180078c60 f   c44_Walking01_DDA3D.obj
 0001:00077c80       disable_c44_Walking01_DDA3D 0000000180078c80 f   c44_Walking01_DDA3D.obj
 0001:00077cb0       sf_opaque_gateway_c44_Walking01_DDA3D 0000000180078cb0 f   c44_Walking01_DDA3D.obj
 0001:00077cd0       sf_gateway_c44_Walking01_DDA3D 0000000180078cd0 f   c44_Walking01_DDA3D.obj
 0001:0007a500       c44_set_sim_state_side_effects_c44_Walking01_DDA3D 000000018007b500 f   c44_Walking01_DDA3D.obj
 0001:0007a530       c44_Initialization         000000018007b530 f   c44_Walking01_DDA3D.obj
 0001:0007efb0       c44_exit_internal_Initialization 000000018007ffb0 f   c44_Walking01_DDA3D.obj
 0001:0007f3d0       c44_b_sf_marshallIn        00000001800803d0 f   c44_Walking01_DDA3D.obj
 0001:0007f470       c44_c_emlrt_marshallIn     0000000180080470 f   c44_Walking01_DDA3D.obj
 0001:0007f500       c44_updateDataWrittenToVector 0000000180080500 f   c44_Walking01_DDA3D.obj
 0001:0007f590       c44_errorIfDataNotWrittenToFcn 0000000180080590 f   c44_Walking01_DDA3D.obj
 0001:0007f660       sf_opaque_ext_mode_exec_c44_Walking01_DDA3D 0000000180080660 f   c44_Walking01_DDA3D.obj
 0001:0007f680       ext_mode_exec_c44_Walking01_DDA3D 0000000180080680 f   c44_Walking01_DDA3D.obj
 0001:0007f6a0       c44_update_debugger_state_c44_Walking01_DDA3D 00000001800806a0 f   c44_Walking01_DDA3D.obj
 0001:00080070       sf_opaque_get_sim_state_c44_Walking01_DDA3D 0000000180081070 f   c44_Walking01_DDA3D.obj
 0001:000800c0       get_sim_state_c44_Walking01_DDA3D 00000001800810c0 f   c44_Walking01_DDA3D.obj
 0001:00080660       sf_opaque_set_sim_state_c44_Walking01_DDA3D 0000000180081660 f   c44_Walking01_DDA3D.obj
 0001:000806b0       set_sim_state_c44_Walking01_DDA3D 00000001800816b0 f   c44_Walking01_DDA3D.obj
 0001:00080940       c44_emlrt_marshallIn       0000000180081940 f   c44_Walking01_DDA3D.obj
 0001:000809b0       c44_e_emlrt_marshallIn     00000001800819b0 f   c44_Walking01_DDA3D.obj
 0001:00080a10       c44_f_emlrt_marshallIn     0000000180081a10 f   c44_Walking01_DDA3D.obj
 0001:00080aa0       c44_g_emlrt_marshallIn     0000000180081aa0 f   c44_Walking01_DDA3D.obj
 0001:00080b10       c44_h_emlrt_marshallIn     0000000180081b10 f   c44_Walking01_DDA3D.obj
 0001:00080bd0       c44_i_emlrt_marshallIn     0000000180081bd0 f   c44_Walking01_DDA3D.obj
 0001:00080c50       c44_j_emlrt_marshallIn     0000000180081c50 f   c44_Walking01_DDA3D.obj
 0001:00080cb0       sf_opaque_terminate_c44_Walking01_DDA3D 0000000180081cb0 f   c44_Walking01_DDA3D.obj
 0001:00080d50       finalize_c44_Walking01_DDA3D 0000000180081d50 f   c44_Walking01_DDA3D.obj
 0001:00080d80       sf_opaque_init_subchart_simstructs 0000000180081d80 f   c44_Walking01_DDA3D.obj
 0001:00080da0       initSimStructsc44_Walking01_DDA3D 0000000180081da0 f   c44_Walking01_DDA3D.obj
 0001:00080db0       sf_get_sfun_dwork_checksum 0000000180081db0 f   c44_Walking01_DDA3D.obj
 0001:00080dc0       mdlRTW_c44_Walking01_DDA3D 0000000180081dc0 f   c44_Walking01_DDA3D.obj
 0001:00081f20       mdlProcessParameters_c45_Walking01_DDA3D 0000000180082f20 f   c45_Walking01_DDA3D.obj
 0001:00082000       initialize_params_c45_Walking01_DDA3D 0000000180083000 f   c45_Walking01_DDA3D.obj
 0001:00082010       mdlSetWorkWidths_c45_Walking01_DDA3D 0000000180083010 f   c45_Walking01_DDA3D.obj
 0001:000825a0       sf_get_instance_specialization 00000001800835a0 f   c45_Walking01_DDA3D.obj
 0001:000825b0       sf_set_sfun_dwork_info     00000001800835b0 f   c45_Walking01_DDA3D.obj
 0001:000825f0       mdlStart_c45_Walking01_DDA3D 00000001800835f0 f   c45_Walking01_DDA3D.obj
 0001:00082870       init_dsm_address_info      0000000180083870 f   c45_Walking01_DDA3D.obj
 0001:00082880       init_simulink_io_address   0000000180083880 f   c45_Walking01_DDA3D.obj
 0001:00082a40       sf_get_sim_state_info_c45_Walking01_DDA3D 0000000180083a40 f   c45_Walking01_DDA3D.obj
 0001:00082b00       chart_debug_initialization 0000000180083b00 f   c45_Walking01_DDA3D.obj
 0001:00085a30       init_script_number_translation 0000000180086a30 f   c45_Walking01_DDA3D.obj
 0001:00085a50       c45_sf_marshallOut         0000000180086a50 f   c45_Walking01_DDA3D.obj
 0001:00085b00       c45_sf_marshallIn          0000000180086b00 f   c45_Walking01_DDA3D.obj
 0001:00085ba0       c45_b_emlrt_marshallIn     0000000180086ba0 f   c45_Walking01_DDA3D.obj
 0001:00085c30       c45_b_sf_marshallOut       0000000180086c30 f   c45_Walking01_DDA3D.obj
 0001:00085ce0       sf_opaque_initialize_c45_Walking01_DDA3D 0000000180086ce0 f   c45_Walking01_DDA3D.obj
 0001:00085d30       initialize_c45_Walking01_DDA3D 0000000180086d30 f   c45_Walking01_DDA3D.obj
 0001:00085dc0       sf_check_dwork_consistency 0000000180086dc0 f   c45_Walking01_DDA3D.obj
 0001:00085eb0       sf_opaque_enable_c45_Walking01_DDA3D 0000000180086eb0 f   c45_Walking01_DDA3D.obj
 0001:00085ed0       enable_c45_Walking01_DDA3D 0000000180086ed0 f   c45_Walking01_DDA3D.obj
 0001:00085f00       sf_opaque_disable_c45_Walking01_DDA3D 0000000180086f00 f   c45_Walking01_DDA3D.obj
 0001:00085f20       disable_c45_Walking01_DDA3D 0000000180086f20 f   c45_Walking01_DDA3D.obj
 0001:00085f50       sf_opaque_gateway_c45_Walking01_DDA3D 0000000180086f50 f   c45_Walking01_DDA3D.obj
 0001:00085f70       sf_gateway_c45_Walking01_DDA3D 0000000180086f70 f   c45_Walking01_DDA3D.obj
 0001:000887a0       c45_set_sim_state_side_effects_c45_Walking01_DDA3D 00000001800897a0 f   c45_Walking01_DDA3D.obj
 0001:000887d0       c45_Initialization         00000001800897d0 f   c45_Walking01_DDA3D.obj
 0001:0008d250       c45_exit_internal_Initialization 000000018008e250 f   c45_Walking01_DDA3D.obj
 0001:0008d670       c45_b_sf_marshallIn        000000018008e670 f   c45_Walking01_DDA3D.obj
 0001:0008d710       c45_c_emlrt_marshallIn     000000018008e710 f   c45_Walking01_DDA3D.obj
 0001:0008d7a0       c45_updateDataWrittenToVector 000000018008e7a0 f   c45_Walking01_DDA3D.obj
 0001:0008d830       c45_errorIfDataNotWrittenToFcn 000000018008e830 f   c45_Walking01_DDA3D.obj
 0001:0008d900       sf_opaque_ext_mode_exec_c45_Walking01_DDA3D 000000018008e900 f   c45_Walking01_DDA3D.obj
 0001:0008d920       ext_mode_exec_c45_Walking01_DDA3D 000000018008e920 f   c45_Walking01_DDA3D.obj
 0001:0008d940       c45_update_debugger_state_c45_Walking01_DDA3D 000000018008e940 f   c45_Walking01_DDA3D.obj
 0001:0008e310       sf_opaque_get_sim_state_c45_Walking01_DDA3D 000000018008f310 f   c45_Walking01_DDA3D.obj
 0001:0008e360       get_sim_state_c45_Walking01_DDA3D 000000018008f360 f   c45_Walking01_DDA3D.obj
 0001:0008e900       sf_opaque_set_sim_state_c45_Walking01_DDA3D 000000018008f900 f   c45_Walking01_DDA3D.obj
 0001:0008e950       set_sim_state_c45_Walking01_DDA3D 000000018008f950 f   c45_Walking01_DDA3D.obj
 0001:0008ebe0       c45_emlrt_marshallIn       000000018008fbe0 f   c45_Walking01_DDA3D.obj
 0001:0008ec50       c45_e_emlrt_marshallIn     000000018008fc50 f   c45_Walking01_DDA3D.obj
 0001:0008ecb0       c45_f_emlrt_marshallIn     000000018008fcb0 f   c45_Walking01_DDA3D.obj
 0001:0008ed40       c45_g_emlrt_marshallIn     000000018008fd40 f   c45_Walking01_DDA3D.obj
 0001:0008edb0       c45_h_emlrt_marshallIn     000000018008fdb0 f   c45_Walking01_DDA3D.obj
 0001:0008ee70       c45_i_emlrt_marshallIn     000000018008fe70 f   c45_Walking01_DDA3D.obj
 0001:0008eef0       c45_j_emlrt_marshallIn     000000018008fef0 f   c45_Walking01_DDA3D.obj
 0001:0008ef50       sf_opaque_terminate_c45_Walking01_DDA3D 000000018008ff50 f   c45_Walking01_DDA3D.obj
 0001:0008eff0       finalize_c45_Walking01_DDA3D 000000018008fff0 f   c45_Walking01_DDA3D.obj
 0001:0008f020       sf_opaque_init_subchart_simstructs 0000000180090020 f   c45_Walking01_DDA3D.obj
 0001:0008f040       initSimStructsc45_Walking01_DDA3D 0000000180090040 f   c45_Walking01_DDA3D.obj
 0001:0008f050       sf_get_sfun_dwork_checksum 0000000180090050 f   c45_Walking01_DDA3D.obj
 0001:0008f060       mdlRTW_c45_Walking01_DDA3D 0000000180090060 f   c45_Walking01_DDA3D.obj
 0001:000901c0       mdlProcessParameters_c46_Walking01_DDA3D 00000001800911c0 f   c46_Walking01_DDA3D.obj
 0001:000902a0       initialize_params_c46_Walking01_DDA3D 00000001800912a0 f   c46_Walking01_DDA3D.obj
 0001:000902b0       mdlSetWorkWidths_c46_Walking01_DDA3D 00000001800912b0 f   c46_Walking01_DDA3D.obj
 0001:00090840       sf_get_instance_specialization 0000000180091840 f   c46_Walking01_DDA3D.obj
 0001:00090850       sf_set_sfun_dwork_info     0000000180091850 f   c46_Walking01_DDA3D.obj
 0001:00090890       mdlStart_c46_Walking01_DDA3D 0000000180091890 f   c46_Walking01_DDA3D.obj
 0001:00090b10       init_dsm_address_info      0000000180091b10 f   c46_Walking01_DDA3D.obj
 0001:00090b20       init_simulink_io_address   0000000180091b20 f   c46_Walking01_DDA3D.obj
 0001:00090ce0       sf_get_sim_state_info_c46_Walking01_DDA3D 0000000180091ce0 f   c46_Walking01_DDA3D.obj
 0001:00090da0       chart_debug_initialization 0000000180091da0 f   c46_Walking01_DDA3D.obj
 0001:00093cd0       init_script_number_translation 0000000180094cd0 f   c46_Walking01_DDA3D.obj
 0001:00093cf0       c46_sf_marshallOut         0000000180094cf0 f   c46_Walking01_DDA3D.obj
 0001:00093da0       c46_sf_marshallIn          0000000180094da0 f   c46_Walking01_DDA3D.obj
 0001:00093e40       c46_b_emlrt_marshallIn     0000000180094e40 f   c46_Walking01_DDA3D.obj
 0001:00093ed0       c46_b_sf_marshallOut       0000000180094ed0 f   c46_Walking01_DDA3D.obj
 0001:00093f80       sf_opaque_initialize_c46_Walking01_DDA3D 0000000180094f80 f   c46_Walking01_DDA3D.obj
 0001:00093fd0       initialize_c46_Walking01_DDA3D 0000000180094fd0 f   c46_Walking01_DDA3D.obj
 0001:00094060       sf_check_dwork_consistency 0000000180095060 f   c46_Walking01_DDA3D.obj
 0001:00094150       sf_opaque_enable_c46_Walking01_DDA3D 0000000180095150 f   c46_Walking01_DDA3D.obj
 0001:00094170       enable_c46_Walking01_DDA3D 0000000180095170 f   c46_Walking01_DDA3D.obj
 0001:000941a0       sf_opaque_disable_c46_Walking01_DDA3D 00000001800951a0 f   c46_Walking01_DDA3D.obj
 0001:000941c0       disable_c46_Walking01_DDA3D 00000001800951c0 f   c46_Walking01_DDA3D.obj
 0001:000941f0       sf_opaque_gateway_c46_Walking01_DDA3D 00000001800951f0 f   c46_Walking01_DDA3D.obj
 0001:00094210       sf_gateway_c46_Walking01_DDA3D 0000000180095210 f   c46_Walking01_DDA3D.obj
 0001:00096a40       c46_set_sim_state_side_effects_c46_Walking01_DDA3D 0000000180097a40 f   c46_Walking01_DDA3D.obj
 0001:00096a70       c46_Initialization         0000000180097a70 f   c46_Walking01_DDA3D.obj
 0001:0009b4f0       c46_exit_internal_Initialization 000000018009c4f0 f   c46_Walking01_DDA3D.obj
 0001:0009b910       c46_b_sf_marshallIn        000000018009c910 f   c46_Walking01_DDA3D.obj
 0001:0009b9b0       c46_c_emlrt_marshallIn     000000018009c9b0 f   c46_Walking01_DDA3D.obj
 0001:0009ba40       c46_updateDataWrittenToVector 000000018009ca40 f   c46_Walking01_DDA3D.obj
 0001:0009bad0       c46_errorIfDataNotWrittenToFcn 000000018009cad0 f   c46_Walking01_DDA3D.obj
 0001:0009bba0       sf_opaque_ext_mode_exec_c46_Walking01_DDA3D 000000018009cba0 f   c46_Walking01_DDA3D.obj
 0001:0009bbc0       ext_mode_exec_c46_Walking01_DDA3D 000000018009cbc0 f   c46_Walking01_DDA3D.obj
 0001:0009bbe0       c46_update_debugger_state_c46_Walking01_DDA3D 000000018009cbe0 f   c46_Walking01_DDA3D.obj
 0001:0009c5b0       sf_opaque_get_sim_state_c46_Walking01_DDA3D 000000018009d5b0 f   c46_Walking01_DDA3D.obj
 0001:0009c600       get_sim_state_c46_Walking01_DDA3D 000000018009d600 f   c46_Walking01_DDA3D.obj
 0001:0009cba0       sf_opaque_set_sim_state_c46_Walking01_DDA3D 000000018009dba0 f   c46_Walking01_DDA3D.obj
 0001:0009cbf0       set_sim_state_c46_Walking01_DDA3D 000000018009dbf0 f   c46_Walking01_DDA3D.obj
 0001:0009ce80       c46_emlrt_marshallIn       000000018009de80 f   c46_Walking01_DDA3D.obj
 0001:0009cef0       c46_e_emlrt_marshallIn     000000018009def0 f   c46_Walking01_DDA3D.obj
 0001:0009cf50       c46_f_emlrt_marshallIn     000000018009df50 f   c46_Walking01_DDA3D.obj
 0001:0009cfe0       c46_g_emlrt_marshallIn     000000018009dfe0 f   c46_Walking01_DDA3D.obj
 0001:0009d050       c46_h_emlrt_marshallIn     000000018009e050 f   c46_Walking01_DDA3D.obj
 0001:0009d110       c46_i_emlrt_marshallIn     000000018009e110 f   c46_Walking01_DDA3D.obj
 0001:0009d190       c46_j_emlrt_marshallIn     000000018009e190 f   c46_Walking01_DDA3D.obj
 0001:0009d1f0       sf_opaque_terminate_c46_Walking01_DDA3D 000000018009e1f0 f   c46_Walking01_DDA3D.obj
 0001:0009d290       finalize_c46_Walking01_DDA3D 000000018009e290 f   c46_Walking01_DDA3D.obj
 0001:0009d2c0       sf_opaque_init_subchart_simstructs 000000018009e2c0 f   c46_Walking01_DDA3D.obj
 0001:0009d2e0       initSimStructsc46_Walking01_DDA3D 000000018009e2e0 f   c46_Walking01_DDA3D.obj
 0001:0009d2f0       sf_get_sfun_dwork_checksum 000000018009e2f0 f   c46_Walking01_DDA3D.obj
 0001:0009d300       mdlRTW_c46_Walking01_DDA3D 000000018009e300 f   c46_Walking01_DDA3D.obj
 0001:0009d3b0       c47_info_helper            000000018009e3b0 f   c47_Walking01_DDA3D.obj
 0001:0009da80       c47_emlrt_marshallOut      000000018009ea80 f   c47_Walking01_DDA3D.obj
 0001:0009db10       c47_b_emlrt_marshallOut    000000018009eb10 f   c47_Walking01_DDA3D.obj
 0001:0009ed60       mdlProcessParameters_c47_Walking01_DDA3D 000000018009fd60 f   c47_Walking01_DDA3D.obj
 0001:0009ee40       initialize_params_c47_Walking01_DDA3D 000000018009fe40 f   c47_Walking01_DDA3D.obj
 0001:0009ef30       mdlSetWorkWidths_c47_Walking01_DDA3D 000000018009ff30 f   c47_Walking01_DDA3D.obj
 0001:0009f6c0       sf_get_instance_specialization 00000001800a06c0 f   c47_Walking01_DDA3D.obj
 0001:0009f6d0       sf_set_sfun_dwork_info     00000001800a06d0 f   c47_Walking01_DDA3D.obj
 0001:0009f710       mdlStart_c47_Walking01_DDA3D 00000001800a0710 f   c47_Walking01_DDA3D.obj
 0001:0009f990       init_dsm_address_info      00000001800a0990 f   c47_Walking01_DDA3D.obj
 0001:0009f9a0       init_simulink_io_address   00000001800a09a0 f   c47_Walking01_DDA3D.obj
 0001:0009fb90       sf_get_sim_state_info_c47_Walking01_DDA3D 00000001800a0b90 f   c47_Walking01_DDA3D.obj
 0001:0009fc50       chart_debug_initialization 00000001800a0c50 f   c47_Walking01_DDA3D.obj
 0001:000a18a0       init_script_number_translation 00000001800a28a0 f   c47_Walking01_DDA3D.obj
 0001:000a18c0       c47_sf_marshallOut         00000001800a28c0 f   c47_Walking01_DDA3D.obj
 0001:000a1970       c47_sf_marshallIn          00000001800a2970 f   c47_Walking01_DDA3D.obj
 0001:000a1a10       c47_emlrt_marshallIn       00000001800a2a10 f   c47_Walking01_DDA3D.obj
 0001:000a1aa0       c47_b_sf_marshallOut       00000001800a2aa0 f   c47_Walking01_DDA3D.obj
 0001:000a1b50       c47_b_sf_marshallIn        00000001800a2b50 f   c47_Walking01_DDA3D.obj
 0001:000a1bf0       c47_c_emlrt_marshallIn     00000001800a2bf0 f   c47_Walking01_DDA3D.obj
 0001:000a1c80       c47_e_sf_marshallOut       00000001800a2c80 f   c47_Walking01_DDA3D.obj
 0001:000a1da0       sf_opaque_initialize_c47_Walking01_DDA3D 00000001800a2da0 f   c47_Walking01_DDA3D.obj
 0001:000a1df0       initialize_c47_Walking01_DDA3D 00000001800a2df0 f   c47_Walking01_DDA3D.obj
 0001:000a1f10       sf_check_dwork_consistency 00000001800a2f10 f   c47_Walking01_DDA3D.obj
 0001:000a2000       sf_opaque_enable_c47_Walking01_DDA3D 00000001800a3000 f   c47_Walking01_DDA3D.obj
 0001:000a2020       enable_c47_Walking01_DDA3D 00000001800a3020 f   c47_Walking01_DDA3D.obj
 0001:000a2050       sf_opaque_disable_c47_Walking01_DDA3D 00000001800a3050 f   c47_Walking01_DDA3D.obj
 0001:000a2070       disable_c47_Walking01_DDA3D 00000001800a3070 f   c47_Walking01_DDA3D.obj
 0001:000a20a0       sf_opaque_gateway_c47_Walking01_DDA3D 00000001800a30a0 f   c47_Walking01_DDA3D.obj
 0001:000a20c0       sf_gateway_c47_Walking01_DDA3D 00000001800a30c0 f   c47_Walking01_DDA3D.obj
 0001:000a2630       c47_set_sim_state_side_effects_c47_Walking01_DDA3D 00000001800a3630 f   c47_Walking01_DDA3D.obj
 0001:000a26c0       c47_chartstep_c47_Walking01_DDA3D 00000001800a36c0 f   c47_Walking01_DDA3D.obj
 0001:000a5c00       c47_check_error            00000001800a6c00 f   c47_Walking01_DDA3D.obj
 0001:000a6040       sf_opaque_ext_mode_exec_c47_Walking01_DDA3D 00000001800a7040 f   c47_Walking01_DDA3D.obj
 0001:000a6060       ext_mode_exec_c47_Walking01_DDA3D 00000001800a7060 f   c47_Walking01_DDA3D.obj
 0001:000a6080       c47_update_debugger_state_c47_Walking01_DDA3D 00000001800a7080 f   c47_Walking01_DDA3D.obj
 0001:000a66a0       sf_opaque_get_sim_state_c47_Walking01_DDA3D 00000001800a76a0 f   c47_Walking01_DDA3D.obj
 0001:000a66f0       get_sim_state_c47_Walking01_DDA3D 00000001800a76f0 f   c47_Walking01_DDA3D.obj
 0001:000a6c60       sf_opaque_set_sim_state_c47_Walking01_DDA3D 00000001800a7c60 f   c47_Walking01_DDA3D.obj
 0001:000a6cb0       set_sim_state_c47_Walking01_DDA3D 00000001800a7cb0 f   c47_Walking01_DDA3D.obj
 0001:000a6f20       c47_b_emlrt_marshallIn     00000001800a7f20 f   c47_Walking01_DDA3D.obj
 0001:000a6f90       c47_e_emlrt_marshallIn     00000001800a7f90 f   c47_Walking01_DDA3D.obj
 0001:000a6ff0       c47_f_emlrt_marshallIn     00000001800a7ff0 f   c47_Walking01_DDA3D.obj
 0001:000a7080       c47_g_emlrt_marshallIn     00000001800a8080 f   c47_Walking01_DDA3D.obj
 0001:000a70e0       c47_h_emlrt_marshallIn     00000001800a80e0 f   c47_Walking01_DDA3D.obj
 0001:000a7170       c47_i_emlrt_marshallIn     00000001800a8170 f   c47_Walking01_DDA3D.obj
 0001:000a71f0       c47_j_emlrt_marshallIn     00000001800a81f0 f   c47_Walking01_DDA3D.obj
 0001:000a7250       sf_opaque_terminate_c47_Walking01_DDA3D 00000001800a8250 f   c47_Walking01_DDA3D.obj
 0001:000a72f0       finalize_c47_Walking01_DDA3D 00000001800a82f0 f   c47_Walking01_DDA3D.obj
 0001:000a7320       sf_opaque_init_subchart_simstructs 00000001800a8320 f   c47_Walking01_DDA3D.obj
 0001:000a7340       initSimStructsc47_Walking01_DDA3D 00000001800a8340 f   c47_Walking01_DDA3D.obj
 0001:000a7350       sf_get_sfun_dwork_checksum 00000001800a8350 f   c47_Walking01_DDA3D.obj
 0001:000a7360       mdlRTW_c47_Walking01_DDA3D 00000001800a8360 f   c47_Walking01_DDA3D.obj
 0001:000a7b70       mdlProcessParameters_c48_Walking01_DDA3D 00000001800a8b70 f   c48_Walking01_DDA3D.obj
 0001:000a7c50       initialize_params_c48_Walking01_DDA3D 00000001800a8c50 f   c48_Walking01_DDA3D.obj
 0001:000a7c60       mdlSetWorkWidths_c48_Walking01_DDA3D 00000001800a8c60 f   c48_Walking01_DDA3D.obj
 0001:000a8130       sf_get_instance_specialization 00000001800a9130 f   c48_Walking01_DDA3D.obj
 0001:000a8140       mdlStart_c48_Walking01_DDA3D 00000001800a9140 f   c48_Walking01_DDA3D.obj
 0001:000a83c0       init_dsm_address_info      00000001800a93c0 f   c48_Walking01_DDA3D.obj
 0001:000a83d0       init_simulink_io_address   00000001800a93d0 f   c48_Walking01_DDA3D.obj
 0001:000a8420       sf_get_sim_state_info_c48_Walking01_DDA3D 00000001800a9420 f   c48_Walking01_DDA3D.obj
 0001:000a84e0       chart_debug_initialization 00000001800a94e0 f   c48_Walking01_DDA3D.obj
 0001:000a8c10       init_script_number_translation 00000001800a9c10 f   c48_Walking01_DDA3D.obj
 0001:000a8c30       c48_sf_marshallOut         00000001800a9c30 f   c48_Walking01_DDA3D.obj
 0001:000a8db0       c48_sf_marshallIn          00000001800a9db0 f   c48_Walking01_DDA3D.obj
 0001:000a8ec0       c48_b_emlrt_marshallIn     00000001800a9ec0 f   c48_Walking01_DDA3D.obj
 0001:000a8fc0       sf_opaque_initialize_c48_Walking01_DDA3D 00000001800a9fc0 f   c48_Walking01_DDA3D.obj
 0001:000a9000       initialize_c48_Walking01_DDA3D 00000001800aa000 f   c48_Walking01_DDA3D.obj
 0001:000a9050       sf_opaque_enable_c48_Walking01_DDA3D 00000001800aa050 f   c48_Walking01_DDA3D.obj
 0001:000a9070       enable_c48_Walking01_DDA3D 00000001800aa070 f   c48_Walking01_DDA3D.obj
 0001:000a90a0       sf_opaque_disable_c48_Walking01_DDA3D 00000001800aa0a0 f   c48_Walking01_DDA3D.obj
 0001:000a90c0       disable_c48_Walking01_DDA3D 00000001800aa0c0 f   c48_Walking01_DDA3D.obj
 0001:000a90f0       sf_opaque_gateway_c48_Walking01_DDA3D 00000001800aa0f0 f   c48_Walking01_DDA3D.obj
 0001:000a9110       sf_gateway_c48_Walking01_DDA3D 00000001800aa110 f   c48_Walking01_DDA3D.obj
 0001:000a9780       c48_b_sf_marshallOut       00000001800aa780 f   c48_Walking01_DDA3D.obj
 0001:000a9830       c48_b_sf_marshallIn        00000001800aa830 f   c48_Walking01_DDA3D.obj
 0001:000a98d0       c48_c_emlrt_marshallIn     00000001800aa8d0 f   c48_Walking01_DDA3D.obj
 0001:000a9960       sf_opaque_get_sim_state_c48_Walking01_DDA3D 00000001800aa960 f   c48_Walking01_DDA3D.obj
 0001:000a99b0       get_sim_state_c48_Walking01_DDA3D 00000001800aa9b0 f   c48_Walking01_DDA3D.obj
 0001:000a9bb0       sf_opaque_set_sim_state_c48_Walking01_DDA3D 00000001800aabb0 f   c48_Walking01_DDA3D.obj
 0001:000a9c00       set_sim_state_c48_Walking01_DDA3D 00000001800aac00 f   c48_Walking01_DDA3D.obj
 0001:000a9d30       c48_update_debugger_state_c48_Walking01_DDA3D 00000001800aad30 f   c48_Walking01_DDA3D.obj
 0001:000a9d40       c48_emlrt_marshallIn       00000001800aad40 f   c48_Walking01_DDA3D.obj
 0001:000a9db0       c48_e_emlrt_marshallIn     00000001800aadb0 f   c48_Walking01_DDA3D.obj
 0001:000a9e10       c48_f_emlrt_marshallIn     00000001800aae10 f   c48_Walking01_DDA3D.obj
 0001:000a9ea0       sf_opaque_terminate_c48_Walking01_DDA3D 00000001800aaea0 f   c48_Walking01_DDA3D.obj
 0001:000a9f40       finalize_c48_Walking01_DDA3D 00000001800aaf40 f   c48_Walking01_DDA3D.obj
 0001:000a9f50       sf_opaque_init_subchart_simstructs 00000001800aaf50 f   c48_Walking01_DDA3D.obj
 0001:000a9f70       initSimStructsc48_Walking01_DDA3D 00000001800aaf70 f   c48_Walking01_DDA3D.obj
 0001:000a9f80       mdlRTW_c48_Walking01_DDA3D 00000001800aaf80 f   c48_Walking01_DDA3D.obj
 0001:000aa030       c49_info_helper            00000001800ab030 f   c49_Walking01_DDA3D.obj
 0001:000b2690       c49_emlrt_marshallOut      00000001800b3690 f   c49_Walking01_DDA3D.obj
 0001:000b2720       c49_b_emlrt_marshallOut    00000001800b3720 f   c49_Walking01_DDA3D.obj
 0001:000b3a60       mdlProcessParameters_c49_Walking01_DDA3D 00000001800b4a60 f   c49_Walking01_DDA3D.obj
 0001:000b3b40       initialize_params_c49_Walking01_DDA3D 00000001800b4b40 f   c49_Walking01_DDA3D.obj
 0001:000b3b50       mdlSetWorkWidths_c49_Walking01_DDA3D 00000001800b4b50 f   c49_Walking01_DDA3D.obj
 0001:000b4140       sf_get_instance_specialization 00000001800b5140 f   c49_Walking01_DDA3D.obj
 0001:000b4150       mdlStart_c49_Walking01_DDA3D 00000001800b5150 f   c49_Walking01_DDA3D.obj
 0001:000b43d0       init_dsm_address_info      00000001800b53d0 f   c49_Walking01_DDA3D.obj
 0001:000b43e0       init_simulink_io_address   00000001800b53e0 f   c49_Walking01_DDA3D.obj
 0001:000b4540       sf_get_sim_state_info_c49_Walking01_DDA3D 00000001800b5540 f   c49_Walking01_DDA3D.obj
 0001:000b4600       chart_debug_initialization 00000001800b5600 f   c49_Walking01_DDA3D.obj
 0001:000b5bb0       init_script_number_translation 00000001800b6bb0 f   c49_Walking01_DDA3D.obj
 0001:000b5c00       c49_sf_marshallOut         00000001800b6c00 f   c49_Walking01_DDA3D.obj
 0001:000b5d70       c49_sf_marshallIn          00000001800b6d70 f   c49_Walking01_DDA3D.obj
 0001:000b5e80       c49_b_emlrt_marshallIn     00000001800b6e80 f   c49_Walking01_DDA3D.obj
 0001:000b5f80       c49_b_sf_marshallOut       00000001800b6f80 f   c49_Walking01_DDA3D.obj
 0001:000b60f0       c49_b_sf_marshallIn        00000001800b70f0 f   c49_Walking01_DDA3D.obj
 0001:000b6200       c49_d_emlrt_marshallIn     00000001800b7200 f   c49_Walking01_DDA3D.obj
 0001:000b62f0       c49_c_sf_marshallOut       00000001800b72f0 f   c49_Walking01_DDA3D.obj
 0001:000b6460       c49_c_sf_marshallIn        00000001800b7460 f   c49_Walking01_DDA3D.obj
 0001:000b6570       c49_f_emlrt_marshallIn     00000001800b7570 f   c49_Walking01_DDA3D.obj
 0001:000b6670       c49_d_sf_marshallOut       00000001800b7670 f   c49_Walking01_DDA3D.obj
 0001:000b6720       c49_Calibration_bus_io     00000001800b7720 f   c49_Walking01_DDA3D.obj
 0001:000b6c60       c49_e_sf_marshallOut       00000001800b7c60 f   c49_Walking01_DDA3D.obj
 0001:000b7960       sf_opaque_initialize_c49_Walking01_DDA3D 00000001800b8960 f   c49_Walking01_DDA3D.obj
 0001:000b79a0       initialize_c49_Walking01_DDA3D 00000001800b89a0 f   c49_Walking01_DDA3D.obj
 0001:000b79f0       sf_opaque_enable_c49_Walking01_DDA3D 00000001800b89f0 f   c49_Walking01_DDA3D.obj
 0001:000b7a10       enable_c49_Walking01_DDA3D 00000001800b8a10 f   c49_Walking01_DDA3D.obj
 0001:000b7a40       sf_opaque_disable_c49_Walking01_DDA3D 00000001800b8a40 f   c49_Walking01_DDA3D.obj
 0001:000b7a60       disable_c49_Walking01_DDA3D 00000001800b8a60 f   c49_Walking01_DDA3D.obj
 0001:000b7a90       sf_opaque_gateway_c49_Walking01_DDA3D 00000001800b8a90 f   c49_Walking01_DDA3D.obj
 0001:000b7ab0       sf_gateway_c49_Walking01_DDA3D 00000001800b8ab0 f   c49_Walking01_DDA3D.obj
 0001:000b9160       c49_calibrateEncoders2     00000001800ba160 f   c49_Walking01_DDA3D.obj
 0001:000bcaa0       c49_f_sf_marshallOut       00000001800bdaa0 f   c49_Walking01_DDA3D.obj
 0001:000bcb50       c49_d_sf_marshallIn        00000001800bdb50 f   c49_Walking01_DDA3D.obj
 0001:000bcbf0       c49_g_emlrt_marshallIn     00000001800bdbf0 f   c49_Walking01_DDA3D.obj
 0001:000bcc80       c49_g_sf_marshallOut       00000001800bdc80 f   c49_Walking01_DDA3D.obj
 0001:000bcdb0       c49_e_sf_marshallIn        00000001800bddb0 f   c49_Walking01_DDA3D.obj
 0001:000bce80       c49_h_emlrt_marshallIn     00000001800bde80 f   c49_Walking01_DDA3D.obj
 0001:000bcf50       c49_h_sf_marshallOut       00000001800bdf50 f   c49_Walking01_DDA3D.obj
 0001:000bd070       c49_f_sf_marshallIn        00000001800be070 f   c49_Walking01_DDA3D.obj
 0001:000bd140       c49_i_emlrt_marshallIn     00000001800be140 f   c49_Walking01_DDA3D.obj
 0001:000bd200       c49_g_sf_marshallIn        00000001800be200 f   c49_Walking01_DDA3D.obj
 0001:000bd2a0       c49_j_emlrt_marshallIn     00000001800be2a0 f   c49_Walking01_DDA3D.obj
 0001:000bd330       c49_h_sf_marshallIn        00000001800be330 f   c49_Walking01_DDA3D.obj
 0001:000bd420       c49_k_emlrt_marshallIn     00000001800be420 f   c49_Walking01_DDA3D.obj
 0001:000bda00       c49_l_emlrt_marshallIn     00000001800bea00 f   c49_Walking01_DDA3D.obj
 0001:000bdaf0       c49_m_emlrt_marshallIn     00000001800beaf0 f   c49_Walking01_DDA3D.obj
 0001:000bdbf0       c49_eml_li_find            00000001800bebf0 f   c49_Walking01_DDA3D.obj
 0001:000bdf40       c49_intmin                 00000001800bef40 f   c49_Walking01_DDA3D.obj
 0001:000bdf60       c49_rdivide                00000001800bef60 f   c49_Walking01_DDA3D.obj
 0001:000bdfd0       c49_b_rdivide              00000001800befd0 f   c49_Walking01_DDA3D.obj
 0001:000be040       c49_b_eml_li_find          00000001800bf040 f   c49_Walking01_DDA3D.obj
 0001:000be400       sf_opaque_get_sim_state_c49_Walking01_DDA3D 00000001800bf400 f   c49_Walking01_DDA3D.obj
 0001:000be450       get_sim_state_c49_Walking01_DDA3D 00000001800bf450 f   c49_Walking01_DDA3D.obj
 0001:000be8f0       sf_opaque_set_sim_state_c49_Walking01_DDA3D 00000001800bf8f0 f   c49_Walking01_DDA3D.obj
 0001:000be940       set_sim_state_c49_Walking01_DDA3D 00000001800bf940 f   c49_Walking01_DDA3D.obj
 0001:000bec40       c49_update_debugger_state_c49_Walking01_DDA3D 00000001800bfc40 f   c49_Walking01_DDA3D.obj
 0001:000bec50       c49_emlrt_marshallIn       00000001800bfc50 f   c49_Walking01_DDA3D.obj
 0001:000becc0       c49_c_emlrt_marshallIn     00000001800bfcc0 f   c49_Walking01_DDA3D.obj
 0001:000bed30       c49_e_emlrt_marshallIn     00000001800bfd30 f   c49_Walking01_DDA3D.obj
 0001:000beda0       c49_o_emlrt_marshallIn     00000001800bfda0 f   c49_Walking01_DDA3D.obj
 0001:000bee00       c49_p_emlrt_marshallIn     00000001800bfe00 f   c49_Walking01_DDA3D.obj
 0001:000bee90       sf_opaque_terminate_c49_Walking01_DDA3D 00000001800bfe90 f   c49_Walking01_DDA3D.obj
 0001:000bef30       finalize_c49_Walking01_DDA3D 00000001800bff30 f   c49_Walking01_DDA3D.obj
 0001:000bef40       sf_opaque_init_subchart_simstructs 00000001800bff40 f   c49_Walking01_DDA3D.obj
 0001:000bef60       initSimStructsc49_Walking01_DDA3D 00000001800bff60 f   c49_Walking01_DDA3D.obj
 0001:000bef70       mdlRTW_c49_Walking01_DDA3D 00000001800bff70 f   c49_Walking01_DDA3D.obj
 0001:000bf020       c50_info_helper            00000001800c0020 f   c50_Walking01_DDA3D.obj
 0001:000c00f0       c50_emlrt_marshallOut      00000001800c10f0 f   c50_Walking01_DDA3D.obj
 0001:000c0180       c50_b_emlrt_marshallOut    00000001800c1180 f   c50_Walking01_DDA3D.obj
 0001:000c0bd0       mdlProcessParameters_c50_Walking01_DDA3D 00000001800c1bd0 f   c50_Walking01_DDA3D.obj
 0001:000c0cb0       initialize_params_c50_Walking01_DDA3D 00000001800c1cb0 f   c50_Walking01_DDA3D.obj
 0001:000c0cc0       mdlSetWorkWidths_c50_Walking01_DDA3D 00000001800c1cc0 f   c50_Walking01_DDA3D.obj
 0001:000c11f0       sf_get_instance_specialization 00000001800c21f0 f   c50_Walking01_DDA3D.obj
 0001:000c1200       mdlStart_c50_Walking01_DDA3D 00000001800c2200 f   c50_Walking01_DDA3D.obj
 0001:000c1480       init_dsm_address_info      00000001800c2480 f   c50_Walking01_DDA3D.obj
 0001:000c1490       init_simulink_io_address   00000001800c2490 f   c50_Walking01_DDA3D.obj
 0001:000c1520       sf_get_sim_state_info_c50_Walking01_DDA3D 00000001800c2520 f   c50_Walking01_DDA3D.obj
 0001:000c15e0       chart_debug_initialization 00000001800c25e0 f   c50_Walking01_DDA3D.obj
 0001:000c2080       init_script_number_translation 00000001800c3080 f   c50_Walking01_DDA3D.obj
 0001:000c20a0       c50_sf_marshallOut         00000001800c30a0 f   c50_Walking01_DDA3D.obj
 0001:000c2220       c50_sf_marshallIn          00000001800c3220 f   c50_Walking01_DDA3D.obj
 0001:000c2330       c50_b_emlrt_marshallIn     00000001800c3330 f   c50_Walking01_DDA3D.obj
 0001:000c2420       c50_b_sf_marshallOut       00000001800c3420 f   c50_Walking01_DDA3D.obj
 0001:000c24d0       c50_c_sf_marshallOut       00000001800c34d0 f   c50_Walking01_DDA3D.obj
 0001:000c2660       sf_opaque_initialize_c50_Walking01_DDA3D 00000001800c3660 f   c50_Walking01_DDA3D.obj
 0001:000c26a0       initialize_c50_Walking01_DDA3D 00000001800c36a0 f   c50_Walking01_DDA3D.obj
 0001:000c26f0       sf_opaque_enable_c50_Walking01_DDA3D 00000001800c36f0 f   c50_Walking01_DDA3D.obj
 0001:000c2710       enable_c50_Walking01_DDA3D 00000001800c3710 f   c50_Walking01_DDA3D.obj
 0001:000c2740       sf_opaque_disable_c50_Walking01_DDA3D 00000001800c3740 f   c50_Walking01_DDA3D.obj
 0001:000c2760       disable_c50_Walking01_DDA3D 00000001800c3760 f   c50_Walking01_DDA3D.obj
 0001:000c2790       sf_opaque_gateway_c50_Walking01_DDA3D 00000001800c3790 f   c50_Walking01_DDA3D.obj
 0001:000c27b0       sf_gateway_c50_Walking01_DDA3D 00000001800c37b0 f   c50_Walking01_DDA3D.obj
 0001:000c2a90       c50_chartstep_c50_Walking01_DDA3D 00000001800c3a90 f   c50_Walking01_DDA3D.obj
 0001:000c55a0       c50_d_sf_marshallOut       00000001800c65a0 f   c50_Walking01_DDA3D.obj
 0001:000c5650       c50_b_sf_marshallIn        00000001800c6650 f   c50_Walking01_DDA3D.obj
 0001:000c56f0       c50_c_emlrt_marshallIn     00000001800c66f0 f   c50_Walking01_DDA3D.obj
 0001:000c5780       sf_opaque_get_sim_state_c50_Walking01_DDA3D 00000001800c6780 f   c50_Walking01_DDA3D.obj
 0001:000c57d0       get_sim_state_c50_Walking01_DDA3D 00000001800c67d0 f   c50_Walking01_DDA3D.obj
 0001:000c59e0       sf_opaque_set_sim_state_c50_Walking01_DDA3D 00000001800c69e0 f   c50_Walking01_DDA3D.obj
 0001:000c5a30       set_sim_state_c50_Walking01_DDA3D 00000001800c6a30 f   c50_Walking01_DDA3D.obj
 0001:000c5b60       c50_update_debugger_state_c50_Walking01_DDA3D 00000001800c6b60 f   c50_Walking01_DDA3D.obj
 0001:000c5b70       c50_emlrt_marshallIn       00000001800c6b70 f   c50_Walking01_DDA3D.obj
 0001:000c5be0       c50_e_emlrt_marshallIn     00000001800c6be0 f   c50_Walking01_DDA3D.obj
 0001:000c5c40       c50_f_emlrt_marshallIn     00000001800c6c40 f   c50_Walking01_DDA3D.obj
 0001:000c5cd0       sf_opaque_terminate_c50_Walking01_DDA3D 00000001800c6cd0 f   c50_Walking01_DDA3D.obj
 0001:000c5d70       finalize_c50_Walking01_DDA3D 00000001800c6d70 f   c50_Walking01_DDA3D.obj
 0001:000c5d80       sf_opaque_init_subchart_simstructs 00000001800c6d80 f   c50_Walking01_DDA3D.obj
 0001:000c5da0       initSimStructsc50_Walking01_DDA3D 00000001800c6da0 f   c50_Walking01_DDA3D.obj
 0001:000c5db0       mdlRTW_c50_Walking01_DDA3D 00000001800c6db0 f   c50_Walking01_DDA3D.obj
 0001:000c5e60       c56_info_helper            00000001800c6e60 f   c56_Walking01_DDA3D.obj
 0001:000c9dc0       c56_emlrt_marshallOut      00000001800cadc0 f   c56_Walking01_DDA3D.obj
 0001:000c9e50       c56_b_emlrt_marshallOut    00000001800cae50 f   c56_Walking01_DDA3D.obj
 0001:000caf00       mdlProcessParameters_c56_Walking01_DDA3D 00000001800cbf00 f   c56_Walking01_DDA3D.obj
 0001:000cafe0       initialize_params_c56_Walking01_DDA3D 00000001800cbfe0 f   c56_Walking01_DDA3D.obj
 0001:000caff0       mdlSetWorkWidths_c56_Walking01_DDA3D 00000001800cbff0 f   c56_Walking01_DDA3D.obj
 0001:000cb5e0       sf_get_instance_specialization 00000001800cc5e0 f   c56_Walking01_DDA3D.obj
 0001:000cb5f0       mdlStart_c56_Walking01_DDA3D 00000001800cc5f0 f   c56_Walking01_DDA3D.obj
 0001:000cb870       init_dsm_address_info      00000001800cc870 f   c56_Walking01_DDA3D.obj
 0001:000cb880       init_simulink_io_address   00000001800cc880 f   c56_Walking01_DDA3D.obj
 0001:000cb9a0       sf_get_sim_state_info_c56_Walking01_DDA3D 00000001800cc9a0 f   c56_Walking01_DDA3D.obj
 0001:000cba60       chart_debug_initialization 00000001800cca60 f   c56_Walking01_DDA3D.obj
 0001:000ccc70       init_script_number_translation 00000001800cdc70 f   c56_Walking01_DDA3D.obj
 0001:000ccc90       c56_sf_marshallOut         00000001800cdc90 f   c56_Walking01_DDA3D.obj
 0001:000ccd40       c56_sf_marshallIn          00000001800cdd40 f   c56_Walking01_DDA3D.obj
 0001:000ccde0       c56_b_emlrt_marshallIn     00000001800cdde0 f   c56_Walking01_DDA3D.obj
 0001:000cce70       c56_b_sf_marshallOut       00000001800cde70 f   c56_Walking01_DDA3D.obj
 0001:000ccf20       c56_b_sf_marshallIn        00000001800cdf20 f   c56_Walking01_DDA3D.obj
 0001:000ccfc0       c56_d_emlrt_marshallIn     00000001800cdfc0 f   c56_Walking01_DDA3D.obj
 0001:000cd050       c56_e_sf_marshallOut       00000001800ce050 f   c56_Walking01_DDA3D.obj
 0001:000cd1d0       c56_f_sf_marshallOut       00000001800ce1d0 f   c56_Walking01_DDA3D.obj
 0001:000cd2f0       c56_ControlState_bus_io    00000001800ce2f0 f   c56_Walking01_DDA3D.obj
 0001:000cd400       c56_d_sf_marshallOut       00000001800ce400 f   c56_Walking01_DDA3D.obj
 0001:000cd930       c56_ControlParams_bus_io   00000001800ce930 f   c56_Walking01_DDA3D.obj
 0001:000ceed0       c56_c_sf_marshallOut       00000001800cfed0 f   c56_Walking01_DDA3D.obj
 0001:000d4a20       sf_opaque_initialize_c56_Walking01_DDA3D 00000001800d5a20 f   c56_Walking01_DDA3D.obj
 0001:000d4a60       initialize_c56_Walking01_DDA3D 00000001800d5a60 f   c56_Walking01_DDA3D.obj
 0001:000d4ab0       sf_opaque_enable_c56_Walking01_DDA3D 00000001800d5ab0 f   c56_Walking01_DDA3D.obj
 0001:000d4ad0       enable_c56_Walking01_DDA3D 00000001800d5ad0 f   c56_Walking01_DDA3D.obj
 0001:000d4b00       sf_opaque_disable_c56_Walking01_DDA3D 00000001800d5b00 f   c56_Walking01_DDA3D.obj
 0001:000d4b20       disable_c56_Walking01_DDA3D 00000001800d5b20 f   c56_Walking01_DDA3D.obj
 0001:000d4b50       sf_opaque_gateway_c56_Walking01_DDA3D 00000001800d5b50 f   c56_Walking01_DDA3D.obj
 0001:000d4b70       sf_gateway_c56_Walking01_DDA3D 00000001800d5b70 f   c56_Walking01_DDA3D.obj
 0001:000d4f40       c56_chartstep_c56_Walking01_DDA3D 00000001800d5f40 f   c56_Walking01_DDA3D.obj
 0001:000d79c0       c56_norm                   00000001800d89c0 f   c56_Walking01_DDA3D.obj
 0001:000d7b90       sf_opaque_get_sim_state_c56_Walking01_DDA3D 00000001800d8b90 f   c56_Walking01_DDA3D.obj
 0001:000d7be0       get_sim_state_c56_Walking01_DDA3D 00000001800d8be0 f   c56_Walking01_DDA3D.obj
 0001:000d7e10       sf_opaque_set_sim_state_c56_Walking01_DDA3D 00000001800d8e10 f   c56_Walking01_DDA3D.obj
 0001:000d7e60       set_sim_state_c56_Walking01_DDA3D 00000001800d8e60 f   c56_Walking01_DDA3D.obj
 0001:000d7f60       c56_update_debugger_state_c56_Walking01_DDA3D 00000001800d8f60 f   c56_Walking01_DDA3D.obj
 0001:000d7f70       c56_emlrt_marshallIn       00000001800d8f70 f   c56_Walking01_DDA3D.obj
 0001:000d7fe0       c56_c_emlrt_marshallIn     00000001800d8fe0 f   c56_Walking01_DDA3D.obj
 0001:000d8040       c56_f_emlrt_marshallIn     00000001800d9040 f   c56_Walking01_DDA3D.obj
 0001:000d80a0       c56_g_emlrt_marshallIn     00000001800d90a0 f   c56_Walking01_DDA3D.obj
 0001:000d8130       sf_opaque_terminate_c56_Walking01_DDA3D 00000001800d9130 f   c56_Walking01_DDA3D.obj
 0001:000d81d0       finalize_c56_Walking01_DDA3D 00000001800d91d0 f   c56_Walking01_DDA3D.obj
 0001:000d81e0       sf_opaque_init_subchart_simstructs 00000001800d91e0 f   c56_Walking01_DDA3D.obj
 0001:000d8200       initSimStructsc56_Walking01_DDA3D 00000001800d9200 f   c56_Walking01_DDA3D.obj
 0001:000d8210       mdlRTW_c56_Walking01_DDA3D 00000001800d9210 f   c56_Walking01_DDA3D.obj
 0001:000d82d0       c57_info_helper            00000001800d92d0 f   c57_Walking01_DDA3D.obj
 0001:000e1f50       c57_emlrt_marshallOut      00000001800e2f50 f   c57_Walking01_DDA3D.obj
 0001:000e1fe0       c57_b_emlrt_marshallOut    00000001800e2fe0 f   c57_Walking01_DDA3D.obj
 0001:000e2050       c57_b_info_helper          00000001800e3050 f   c57_Walking01_DDA3D.obj
 0001:000ebcc0       c57_c_info_helper          00000001800eccc0 f   c57_Walking01_DDA3D.obj
 0001:000f60a0       mdlProcessParameters_c57_Walking01_DDA3D 00000001800f70a0 f   c57_Walking01_DDA3D.obj
 0001:000f6180       initialize_params_c57_Walking01_DDA3D 00000001800f7180 f   c57_Walking01_DDA3D.obj
 0001:000f6190       mdlSetWorkWidths_c57_Walking01_DDA3D 00000001800f7190 f   c57_Walking01_DDA3D.obj
 0001:000f6720       sf_get_instance_specialization 00000001800f7720 f   c57_Walking01_DDA3D.obj
 0001:000f6730       mdlStart_c57_Walking01_DDA3D 00000001800f7730 f   c57_Walking01_DDA3D.obj
 0001:000f69b0       init_dsm_address_info      00000001800f79b0 f   c57_Walking01_DDA3D.obj
 0001:000f69c0       init_simulink_io_address   00000001800f79c0 f   c57_Walking01_DDA3D.obj
 0001:000f6a90       sf_get_sim_state_info_c57_Walking01_DDA3D 00000001800f7a90 f   c57_Walking01_DDA3D.obj
 0001:000f6b50       chart_debug_initialization 00000001800f7b50 f   c57_Walking01_DDA3D.obj
 0001:000f9820       init_script_number_translation 00000001800fa820 f   c57_Walking01_DDA3D.obj
 0001:000f9a50       c57_sf_marshallOut         00000001800faa50 f   c57_Walking01_DDA3D.obj
 0001:000f9ba0       c57_sf_marshallIn          00000001800faba0 f   c57_Walking01_DDA3D.obj
 0001:000f9cb0       c57_b_emlrt_marshallIn     00000001800facb0 f   c57_Walking01_DDA3D.obj
 0001:000f9db0       c57_d_sf_marshallOut       00000001800fadb0 f   c57_Walking01_DDA3D.obj
 0001:000f9ee0       c57_e_sf_marshallOut       00000001800faee0 f   c57_Walking01_DDA3D.obj
 0001:000f9f90       c57_ControlState_bus_io    00000001800faf90 f   c57_Walking01_DDA3D.obj
 0001:000fa0a0       c57_c_sf_marshallOut       00000001800fb0a0 f   c57_Walking01_DDA3D.obj
 0001:000fa5a0       c57_ControlParams_bus_io   00000001800fb5a0 f   c57_Walking01_DDA3D.obj
 0001:000fbb10       c57_b_sf_marshallOut       00000001800fcb10 f   c57_Walking01_DDA3D.obj
 0001:00101650       sf_opaque_initialize_c57_Walking01_DDA3D 0000000180102650 f   c57_Walking01_DDA3D.obj
 0001:00101690       initialize_c57_Walking01_DDA3D 0000000180102690 f   c57_Walking01_DDA3D.obj
 0001:001016e0       sf_opaque_enable_c57_Walking01_DDA3D 00000001801026e0 f   c57_Walking01_DDA3D.obj
 0001:00101700       enable_c57_Walking01_DDA3D 0000000180102700 f   c57_Walking01_DDA3D.obj
 0001:00101730       sf_opaque_disable_c57_Walking01_DDA3D 0000000180102730 f   c57_Walking01_DDA3D.obj
 0001:00101750       disable_c57_Walking01_DDA3D 0000000180102750 f   c57_Walking01_DDA3D.obj
 0001:00101780       sf_opaque_gateway_c57_Walking01_DDA3D 0000000180102780 f   c57_Walking01_DDA3D.obj
 0001:001017a0       sf_gateway_c57_Walking01_DDA3D 00000001801027a0 f   c57_Walking01_DDA3D.obj
 0001:00101a80       c57_chartstep_c57_Walking01_DDA3D 0000000180102a80 f   c57_Walking01_DDA3D.obj
 0001:001067c0       c57_LA_LS_Revised_Saturation 00000001801077c0 f   c57_Walking01_DDA3D.obj
 0001:00115ec0       c57_LA_LS_Revised_Saturation_Case_1 0000000180116ec0 f   c57_Walking01_DDA3D.obj
 0001:00116810       c57_LA_LS_Revised_Saturation_Case_2 0000000180117810 f   c57_Walking01_DDA3D.obj
 0001:001170a0       c57_LA_LS_Revised_Saturation_Case_3 00000001801180a0 f   c57_Walking01_DDA3D.obj
 0001:00117930       c57_LA_LS_Revised_Saturation_Case_4 0000000180118930 f   c57_Walking01_DDA3D.obj
 0001:001181d0       c57_LA_LS_Revised_Saturation_Case_5 00000001801191d0 f   c57_Walking01_DDA3D.obj
 0001:00118a60       c57_LA_LS_Revised_Saturation_Case_6 0000000180119a60 f   c57_Walking01_DDA3D.obj
 0001:00119380       c57_LA_LS_Revised_Saturation_Case_7 000000018011a380 f   c57_Walking01_DDA3D.obj
 0001:00119cb0       c57_LA_LS_Revised_Saturation_Case_8 000000018011acb0 f   c57_Walking01_DDA3D.obj
 0001:0011a5e0       c57_LA_LS_Revised_Saturation_Case_9 000000018011b5e0 f   c57_Walking01_DDA3D.obj
 0001:0011af10       c57_b_sf_marshallIn        000000018011bf10 f   c57_Walking01_DDA3D.obj
 0001:0011afb0       c57_c_emlrt_marshallIn     000000018011bfb0 f   c57_Walking01_DDA3D.obj
 0001:0011b040       c57_f_sf_marshallOut       000000018011c040 f   c57_Walking01_DDA3D.obj
 0001:0011b240       c57_c_sf_marshallIn        000000018011c240 f   c57_Walking01_DDA3D.obj
 0001:0011b3c0       c57_d_emlrt_marshallIn     000000018011c3c0 f   c57_Walking01_DDA3D.obj
 0001:0011b4c0       c57_d_sf_marshallIn        000000018011c4c0 f   c57_Walking01_DDA3D.obj
 0001:0011b590       c57_e_emlrt_marshallIn     000000018011c590 f   c57_Walking01_DDA3D.obj
 0001:0011b660       c57_g_sf_marshallOut       000000018011c660 f   c57_Walking01_DDA3D.obj
 0001:0011b7c0       c57_e_sf_marshallIn        000000018011c7c0 f   c57_Walking01_DDA3D.obj
 0001:0011b8c0       c57_f_emlrt_marshallIn     000000018011c8c0 f   c57_Walking01_DDA3D.obj
 0001:0011b9b0       c57_eml_scalar_eg          000000018011c9b0 f   c57_Walking01_DDA3D.obj
 0001:0011b9c0       c57_threshold              000000018011c9c0 f   c57_Walking01_DDA3D.obj
 0001:0011b9d0       c57_rdivide                000000018011c9d0 f   c57_Walking01_DDA3D.obj
 0001:0011ba30       c57_eml_switch_helper      000000018011ca30 f   c57_Walking01_DDA3D.obj
 0001:0011ba40       c57_check_forloop_overflow_error 000000018011ca40 f   c57_Walking01_DDA3D.obj
 0001:0011bc40       c57_b_eml_scalar_eg        000000018011cc40 f   c57_Walking01_DDA3D.obj
 0001:0011bc50       c57_c_eml_scalar_eg        000000018011cc50 f   c57_Walking01_DDA3D.obj
 0001:0011bc60       c57_eml_xdotu              000000018011cc60 f   c57_Walking01_DDA3D.obj
 0001:0011be70       c57_eml_warning            000000018011ce70 f   c57_Walking01_DDA3D.obj
 0001:0011bfb0       c57_b_eml_matlab_zgetrf    000000018011cfb0 f   c57_Walking01_DDA3D.obj
 0001:0011ce60       c57_realmin                000000018011de60 f   c57_Walking01_DDA3D.obj
 0001:0011ce70       c57_eps                    000000018011de70 f   c57_Walking01_DDA3D.obj
 0001:0011ce80       c57_eml_ixamax             000000018011de80 f   c57_Walking01_DDA3D.obj
 0001:0011d2f0       c57_b_eml_switch_helper    000000018011e2f0 f   c57_Walking01_DDA3D.obj
 0001:0011d300       c57_b_eml_xgeru            000000018011e300 f   c57_Walking01_DDA3D.obj
 0001:0011dab0       c57_c_eml_xtrsm            000000018011eab0 f   c57_Walking01_DDA3D.obj
 0001:0011dfe0       c57_below_threshold        000000018011efe0 f   c57_Walking01_DDA3D.obj
 0001:0011e000       c57_c_eml_switch_helper    000000018011f000 f   c57_Walking01_DDA3D.obj
 0001:0011e010       c57_scalarEg               000000018011f010 f   c57_Walking01_DDA3D.obj
 0001:0011e020       c57_d_eml_xtrsm            000000018011f020 f   c57_Walking01_DDA3D.obj
 0001:0011e7f0       sf_opaque_get_sim_state_c57_Walking01_DDA3D 000000018011f7f0 f   c57_Walking01_DDA3D.obj
 0001:0011e840       get_sim_state_c57_Walking01_DDA3D 000000018011f840 f   c57_Walking01_DDA3D.obj
 0001:0011ea10       sf_opaque_set_sim_state_c57_Walking01_DDA3D 000000018011fa10 f   c57_Walking01_DDA3D.obj
 0001:0011ea60       set_sim_state_c57_Walking01_DDA3D 000000018011fa60 f   c57_Walking01_DDA3D.obj
 0001:0011eb90       c57_update_debugger_state_c57_Walking01_DDA3D 000000018011fb90 f   c57_Walking01_DDA3D.obj
 0001:0011eba0       c57_emlrt_marshallIn       000000018011fba0 f   c57_Walking01_DDA3D.obj
 0001:0011ec10       c57_h_emlrt_marshallIn     000000018011fc10 f   c57_Walking01_DDA3D.obj
 0001:0011ec70       c57_i_emlrt_marshallIn     000000018011fc70 f   c57_Walking01_DDA3D.obj
 0001:0011ed00       sf_opaque_terminate_c57_Walking01_DDA3D 000000018011fd00 f   c57_Walking01_DDA3D.obj
 0001:0011eda0       finalize_c57_Walking01_DDA3D 000000018011fda0 f   c57_Walking01_DDA3D.obj
 0001:0011edb0       sf_opaque_init_subchart_simstructs 000000018011fdb0 f   c57_Walking01_DDA3D.obj
 0001:0011edd0       initSimStructsc57_Walking01_DDA3D 000000018011fdd0 f   c57_Walking01_DDA3D.obj
 0001:0011ede0       mdlRTW_c57_Walking01_DDA3D 000000018011fde0 f   c57_Walking01_DDA3D.obj
 0001:0011eec0       c58_info_helper            000000018011fec0 f   c58_Walking01_DDA3D.obj
 0001:00128b30       c58_emlrt_marshallOut      0000000180129b30 f   c58_Walking01_DDA3D.obj
 0001:00128bc0       c58_b_emlrt_marshallOut    0000000180129bc0 f   c58_Walking01_DDA3D.obj
 0001:00128c30       c58_b_info_helper          0000000180129c30 f   c58_Walking01_DDA3D.obj
 0001:001328a0       c58_c_info_helper          00000001801338a0 f   c58_Walking01_DDA3D.obj
 0001:0013c510       c58_d_info_helper          000000018013d510 f   c58_Walking01_DDA3D.obj
 0001:00146180       c58_e_info_helper          0000000180147180 f   c58_Walking01_DDA3D.obj
 0001:0014fdf0       c58_f_info_helper          0000000180150df0 f   c58_Walking01_DDA3D.obj
 0001:00153f00       mdlProcessParameters_c58_Walking01_DDA3D 0000000180154f00 f   c58_Walking01_DDA3D.obj
 0001:00153fe0       initialize_params_c58_Walking01_DDA3D 0000000180154fe0 f   c58_Walking01_DDA3D.obj
 0001:00153ff0       mdlSetWorkWidths_c58_Walking01_DDA3D 0000000180154ff0 f   c58_Walking01_DDA3D.obj
 0001:00154700       sf_get_instance_specialization 0000000180155700 f   c58_Walking01_DDA3D.obj
 0001:00154710       mdlStart_c58_Walking01_DDA3D 0000000180155710 f   c58_Walking01_DDA3D.obj
 0001:00154990       init_dsm_address_info      0000000180155990 f   c58_Walking01_DDA3D.obj
 0001:001549a0       init_simulink_io_address   00000001801559a0 f   c58_Walking01_DDA3D.obj
 0001:00154d40       sf_get_sim_state_info_c58_Walking01_DDA3D 0000000180155d40 f   c58_Walking01_DDA3D.obj
 0001:00154e10       chart_debug_initialization 0000000180155e10 f   c58_Walking01_DDA3D.obj
 0001:0015d450       init_script_number_translation 000000018015e450 f   c58_Walking01_DDA3D.obj
 0001:0015d920       c58_sf_marshallOut         000000018015e920 f   c58_Walking01_DDA3D.obj
 0001:0015d9d0       c58_sf_marshallIn          000000018015e9d0 f   c58_Walking01_DDA3D.obj
 0001:0015da70       c58_d_emlrt_marshallIn     000000018015ea70 f   c58_Walking01_DDA3D.obj
 0001:0015db00       c58_b_sf_marshallOut       000000018015eb00 f   c58_Walking01_DDA3D.obj
 0001:0015dc80       c58_b_sf_marshallIn        000000018015ec80 f   c58_Walking01_DDA3D.obj
 0001:0015dd80       c58_f_emlrt_marshallIn     000000018015ed80 f   c58_Walking01_DDA3D.obj
 0001:0015de70       c58_c_sf_marshallOut       000000018015ee70 f   c58_Walking01_DDA3D.obj
 0001:0015dff0       c58_c_sf_marshallIn        000000018015eff0 f   c58_Walking01_DDA3D.obj
 0001:0015e100       c58_h_emlrt_marshallIn     000000018015f100 f   c58_Walking01_DDA3D.obj
 0001:0015e200       c58_d_sf_marshallOut       000000018015f200 f   c58_Walking01_DDA3D.obj
 0001:0015e450       c58_g_sf_marshallOut       000000018015f450 f   c58_Walking01_DDA3D.obj
 0001:0015e5d0       c58_ControlState_bus_io    000000018015f5d0 f   c58_Walking01_DDA3D.obj
 0001:0015e6e0       c58_f_sf_marshallOut       000000018015f6e0 f   c58_Walking01_DDA3D.obj
 0001:0015ec10       c58_ControlParams_bus_io   000000018015fc10 f   c58_Walking01_DDA3D.obj
 0001:001601b0       c58_e_sf_marshallOut       00000001801611b0 f   c58_Walking01_DDA3D.obj
 0001:00165cf0       sf_opaque_initialize_c58_Walking01_DDA3D 0000000180166cf0 f   c58_Walking01_DDA3D.obj
 0001:00165d30       initialize_c58_Walking01_DDA3D 0000000180166d30 f   c58_Walking01_DDA3D.obj
 0001:00165d80       sf_opaque_enable_c58_Walking01_DDA3D 0000000180166d80 f   c58_Walking01_DDA3D.obj
 0001:00165da0       enable_c58_Walking01_DDA3D 0000000180166da0 f   c58_Walking01_DDA3D.obj
 0001:00165dd0       sf_opaque_disable_c58_Walking01_DDA3D 0000000180166dd0 f   c58_Walking01_DDA3D.obj
 0001:00165df0       disable_c58_Walking01_DDA3D 0000000180166df0 f   c58_Walking01_DDA3D.obj
 0001:00165e20       sf_opaque_gateway_c58_Walking01_DDA3D 0000000180166e20 f   c58_Walking01_DDA3D.obj
 0001:00165e40       sf_gateway_c58_Walking01_DDA3D 0000000180166e40 f   c58_Walking01_DDA3D.obj
 0001:00166aa0       c58_chartstep_c58_Walking01_DDA3D 0000000180167aa0 f   c58_Walking01_DDA3D.obj
 0001:0016c3e0       c58_ATRIAS3D_ZD_Control06  000000018016d3e0 f   c58_Walking01_DDA3D.obj
 0001:00171380       c58_ATRIAS3D_ZD_Output03   0000000180172380 f   c58_Walking01_DDA3D.obj
 0001:00179fb0       c58_ATRIAS3D_ZD_s6         000000018017afb0 f   c58_Walking01_DDA3D.obj
 0001:0017adc0       c58_sat                    000000018017bdc0 f   c58_Walking01_DDA3D.obj
 0001:0017b2b0       c58_bezierv                000000018017c2b0 f   c58_Walking01_DDA3D.obj
 0001:0017c700       c58_beziervd               000000018017d700 f   c58_Walking01_DDA3D.obj
 0001:0017dbb0       c58_bezierva               000000018017ebb0 f   c58_Walking01_DDA3D.obj
 0001:0017f080       c58_bezier                 0000000180180080 f   c58_Walking01_DDA3D.obj
 0001:00180960       c58_bezierd                0000000180181960 f   c58_Walking01_DDA3D.obj
 0001:00181870       c58_beziera                0000000180182870 f   c58_Walking01_DDA3D.obj
 0001:00182780       c58_polyv                  0000000180183780 f   c58_Walking01_DDA3D.obj
 0001:001831f0       c58_polyvd                 00000001801841f0 f   c58_Walking01_DDA3D.obj
 0001:00183cc0       c58_polyva                 0000000180184cc0 f   c58_Walking01_DDA3D.obj
 0001:00184680       c58_b_sat                  0000000180185680 f   c58_Walking01_DDA3D.obj
 0001:00184c10       c58_b_bezier               0000000180185c10 f   c58_Walking01_DDA3D.obj
 0001:00185eb0       c58_fulldynamicscontrolBAG 0000000180186eb0 f   c58_Walking01_DDA3D.obj
 0001:0018c220       c58_Update_q               000000018018d220 f   c58_Walking01_DDA3D.obj
 0001:0018ee10       c58_modelParametersAtrias_v05 000000018018fe10 f   c58_Walking01_DDA3D.obj
 0001:00191120       c58_LagrangeModelAtrias2DBAG 0000000180192120 f   c58_Walking01_DDA3D.obj
 0001:001a6a30       c58_ATRIAS2D_SS_s_RigidBAG 00000001801a7a30 f   c58_Walking01_DDA3D.obj
 0001:001a7550       c58_saturatedhalpha        00000001801a8550 f   c58_Walking01_DDA3D.obj
 0001:001a9fb0       c58_c_bezier               00000001801aafb0 f   c58_Walking01_DDA3D.obj
 0001:001ab240       c58_HipControl             00000001801ac240 f   c58_Walking01_DDA3D.obj
 0001:001ac6d0       c58_h_sf_marshallOut       00000001801ad6d0 f   c58_Walking01_DDA3D.obj
 0001:001ac7f0       c58_d_sf_marshallIn        00000001801ad7f0 f   c58_Walking01_DDA3D.obj
 0001:001ac8c0       c58_i_emlrt_marshallIn     00000001801ad8c0 f   c58_Walking01_DDA3D.obj
 0001:001ac990       c58_i_sf_marshallOut       00000001801ad990 f   c58_Walking01_DDA3D.obj
 0001:001acbe0       c58_e_sf_marshallIn        00000001801adbe0 f   c58_Walking01_DDA3D.obj
 0001:001acd50       c58_j_emlrt_marshallIn     00000001801add50 f   c58_Walking01_DDA3D.obj
 0001:001ace60       c58_j_sf_marshallOut       00000001801ade60 f   c58_Walking01_DDA3D.obj
 0001:001acfe0       c58_f_sf_marshallIn        00000001801adfe0 f   c58_Walking01_DDA3D.obj
 0001:001ad0e0       c58_k_emlrt_marshallIn     00000001801ae0e0 f   c58_Walking01_DDA3D.obj
 0001:001ad1d0       c58_k_sf_marshallOut       00000001801ae1d0 f   c58_Walking01_DDA3D.obj
 0001:001ad420       c58_g_sf_marshallIn        00000001801ae420 f   c58_Walking01_DDA3D.obj
 0001:001ad590       c58_l_emlrt_marshallIn     00000001801ae590 f   c58_Walking01_DDA3D.obj
 0001:001ad690       c58_l_sf_marshallOut       00000001801ae690 f   c58_Walking01_DDA3D.obj
 0001:001ad820       c58_h_sf_marshallIn        00000001801ae820 f   c58_Walking01_DDA3D.obj
 0001:001ad940       c58_m_emlrt_marshallIn     00000001801ae940 f   c58_Walking01_DDA3D.obj
 0001:001ada40       c58_m_sf_marshallOut       00000001801aea40 f   c58_Walking01_DDA3D.obj
 0001:001adbd0       c58_i_sf_marshallIn        00000001801aebd0 f   c58_Walking01_DDA3D.obj
 0001:001add00       c58_n_emlrt_marshallIn     00000001801aed00 f   c58_Walking01_DDA3D.obj
 0001:001ade10       c58_n_sf_marshallOut       00000001801aee10 f   c58_Walking01_DDA3D.obj
 0001:001adf50       c58_j_sf_marshallIn        00000001801aef50 f   c58_Walking01_DDA3D.obj
 0001:001ae020       c58_o_emlrt_marshallIn     00000001801af020 f   c58_Walking01_DDA3D.obj
 0001:001ae100       c58_k_sf_marshallIn        00000001801af100 f   c58_Walking01_DDA3D.obj
 0001:001ae210       c58_p_emlrt_marshallIn     00000001801af210 f   c58_Walking01_DDA3D.obj
 0001:001ae300       c58_o_sf_marshallOut       00000001801af300 f   c58_Walking01_DDA3D.obj
 0001:001ae490       c58_l_sf_marshallIn        00000001801af490 f   c58_Walking01_DDA3D.obj
 0001:001ae5a0       c58_q_emlrt_marshallIn     00000001801af5a0 f   c58_Walking01_DDA3D.obj
 0001:001ae6a0       c58_p_sf_marshallOut       00000001801af6a0 f   c58_Walking01_DDA3D.obj
 0001:001ae830       c58_m_sf_marshallIn        00000001801af830 f   c58_Walking01_DDA3D.obj
 0001:001ae930       c58_r_emlrt_marshallIn     00000001801af930 f   c58_Walking01_DDA3D.obj
 0001:001aea40       c58_q_sf_marshallOut       00000001801afa40 f   c58_Walking01_DDA3D.obj
 0001:001aebd0       c58_n_sf_marshallIn        00000001801afbd0 f   c58_Walking01_DDA3D.obj
 0001:001aecd0       c58_s_emlrt_marshallIn     00000001801afcd0 f   c58_Walking01_DDA3D.obj
 0001:001aede0       c58_r_sf_marshallOut       00000001801afde0 f   c58_Walking01_DDA3D.obj
 0001:001aef70       c58_o_sf_marshallIn        00000001801aff70 f   c58_Walking01_DDA3D.obj
 0001:001af0a0       c58_t_emlrt_marshallIn     00000001801b00a0 f   c58_Walking01_DDA3D.obj
 0001:001af1a0       c58_s_sf_marshallOut       00000001801b01a0 f   c58_Walking01_DDA3D.obj
 0001:001af3f0       c58_p_sf_marshallIn        00000001801b03f0 f   c58_Walking01_DDA3D.obj
 0001:001af560       c58_u_emlrt_marshallIn     00000001801b0560 f   c58_Walking01_DDA3D.obj
 0001:001af670       c58_t_sf_marshallOut       00000001801b0670 f   c58_Walking01_DDA3D.obj
 0001:001af8b0       c58_q_sf_marshallIn        00000001801b08b0 f   c58_Walking01_DDA3D.obj
 0001:001afa10       c58_v_emlrt_marshallIn     00000001801b0a10 f   c58_Walking01_DDA3D.obj
 0001:001afb20       c58_r_sf_marshallIn        00000001801b0b20 f   c58_Walking01_DDA3D.obj
 0001:001afc20       c58_w_emlrt_marshallIn     00000001801b0c20 f   c58_Walking01_DDA3D.obj
 0001:001afeb0       c58_x_emlrt_marshallIn     00000001801b0eb0 f   c58_Walking01_DDA3D.obj
 0001:001b1340       c58_y_emlrt_marshallIn     00000001801b2340 f   c58_Walking01_DDA3D.obj
 0001:001b1440       c58_ab_emlrt_marshallIn    00000001801b2440 f   c58_Walking01_DDA3D.obj
 0001:001b17e0       c58_bb_emlrt_marshallIn    00000001801b27e0 f   c58_Walking01_DDA3D.obj
 0001:001b1f50       c58_cb_emlrt_marshallIn    00000001801b2f50 f   c58_Walking01_DDA3D.obj
 0001:001b2150       c58_db_emlrt_marshallIn    00000001801b3150 f   c58_Walking01_DDA3D.obj
 0001:001b2250       c58_eb_emlrt_marshallIn    00000001801b3250 f   c58_Walking01_DDA3D.obj
 0001:001b2360       c58_fb_emlrt_marshallIn    00000001801b3360 f   c58_Walking01_DDA3D.obj
 0001:001b2d50       c58_gb_emlrt_marshallIn    00000001801b3d50 f   c58_Walking01_DDA3D.obj
 0001:001b3030       c58_s_sf_marshallIn        00000001801b4030 f   c58_Walking01_DDA3D.obj
 0001:001b3150       c58_hb_emlrt_marshallIn    00000001801b4150 f   c58_Walking01_DDA3D.obj
 0001:001b3430       c58_u_sf_marshallOut       00000001801b4430 f   c58_Walking01_DDA3D.obj
 0001:001b3570       c58_t_sf_marshallIn        00000001801b4570 f   c58_Walking01_DDA3D.obj
 0001:001b3660       c58_ib_emlrt_marshallIn    00000001801b4660 f   c58_Walking01_DDA3D.obj
 0001:001b3740       c58_v_sf_marshallOut       00000001801b4740 f   c58_Walking01_DDA3D.obj
 0001:001b37f0       c58_u_sf_marshallIn        00000001801b47f0 f   c58_Walking01_DDA3D.obj
 0001:001b3890       c58_jb_emlrt_marshallIn    00000001801b4890 f   c58_Walking01_DDA3D.obj
 0001:001b3920       c58_w_sf_marshallOut       00000001801b4920 f   c58_Walking01_DDA3D.obj
 0001:001b4d50       c58_v_sf_marshallIn        00000001801b5d50 f   c58_Walking01_DDA3D.obj
 0001:001b4e50       c58_x_sf_marshallOut       00000001801b5e50 f   c58_Walking01_DDA3D.obj
 0001:001b50a0       c58_w_sf_marshallIn        00000001801b60a0 f   c58_Walking01_DDA3D.obj
 0001:001b5210       c58_y_sf_marshallOut       00000001801b6210 f   c58_Walking01_DDA3D.obj
 0001:001b5380       c58_x_sf_marshallIn        00000001801b6380 f   c58_Walking01_DDA3D.obj
 0001:001b5480       c58_kb_emlrt_marshallIn    00000001801b6480 f   c58_Walking01_DDA3D.obj
 0001:001b5570       c58_ab_sf_marshallOut      00000001801b6570 f   c58_Walking01_DDA3D.obj
 0001:001b57c0       c58_y_sf_marshallIn        00000001801b67c0 f   c58_Walking01_DDA3D.obj
 0001:001b5930       c58_lb_emlrt_marshallIn    00000001801b6930 f   c58_Walking01_DDA3D.obj
 0001:001b5a40       c58_bb_sf_marshallOut      00000001801b6a40 f   c58_Walking01_DDA3D.obj
 0001:001b5c80       c58_ab_sf_marshallIn       00000001801b6c80 f   c58_Walking01_DDA3D.obj
 0001:001b5df0       c58_mb_emlrt_marshallIn    00000001801b6df0 f   c58_Walking01_DDA3D.obj
 0001:001b5f00       c58_cb_sf_marshallOut      00000001801b6f00 f   c58_Walking01_DDA3D.obj
 0001:001b6130       c58_bb_sf_marshallIn       00000001801b7130 f   c58_Walking01_DDA3D.obj
 0001:001b6290       c58_nb_emlrt_marshallIn    00000001801b7290 f   c58_Walking01_DDA3D.obj
 0001:001b6390       c58_db_sf_marshallOut      00000001801b7390 f   c58_Walking01_DDA3D.obj
 0001:001b65d0       c58_eb_sf_marshallOut      00000001801b75d0 f   c58_Walking01_DDA3D.obj
 0001:001b6820       c58_cb_sf_marshallIn       00000001801b7820 f   c58_Walking01_DDA3D.obj
 0001:001b6990       c58_ob_emlrt_marshallIn    00000001801b7990 f   c58_Walking01_DDA3D.obj
 0001:001b6aa0       c58_fb_sf_marshallOut      00000001801b7aa0 f   c58_Walking01_DDA3D.obj
 0001:001b6e00       c58_eml_switch_helper      00000001801b7e00 f   c58_Walking01_DDA3D.obj
 0001:001b6e10       c58_threshold              00000001801b7e10 f   c58_Walking01_DDA3D.obj
 0001:001b6e20       c58_rdivide                00000001801b7e20 f   c58_Walking01_DDA3D.obj
 0001:001b6e80       c58_eml_scalar_eg          00000001801b7e80 f   c58_Walking01_DDA3D.obj
 0001:001b6e90       c58_eml_li_find            00000001801b7e90 f   c58_Walking01_DDA3D.obj
 0001:001b7000       c58_repmat                 00000001801b8000 f   c58_Walking01_DDA3D.obj
 0001:001b7060       c58_b_repmat               00000001801b8060 f   c58_Walking01_DDA3D.obj
 0001:001b70c0       c58_b_eml_li_find          00000001801b80c0 f   c58_Walking01_DDA3D.obj
 0001:001b7420       c58_b_eml_scalar_eg        00000001801b8420 f   c58_Walking01_DDA3D.obj
 0001:001b7430       c58_b_threshold            00000001801b8430 f   c58_Walking01_DDA3D.obj
 0001:001b7440       c58_c_eml_scalar_eg        00000001801b8440 f   c58_Walking01_DDA3D.obj
 0001:001b7450       c58_mpower                 00000001801b8450 f   c58_Walking01_DDA3D.obj
 0001:001b7480       c58_power                  00000001801b8480 f   c58_Walking01_DDA3D.obj
 0001:001b74e0       c58_any                    00000001801b84e0 f   c58_Walking01_DDA3D.obj
 0001:001b7560       c58_d_eml_scalar_eg        00000001801b8560 f   c58_Walking01_DDA3D.obj
 0001:001b7570       c58_e_eml_scalar_eg        00000001801b8570 f   c58_Walking01_DDA3D.obj
 0001:001b7580       c58_mldivide               00000001801b8580 f   c58_Walking01_DDA3D.obj
 0001:001b78d0       c58_eml_warning            00000001801b88d0 f   c58_Walking01_DDA3D.obj
 0001:001b7a20       c58_b_power                00000001801b8a20 f   c58_Walking01_DDA3D.obj
 0001:001b7ae0       c58_b_rdivide              00000001801b8ae0 f   c58_Walking01_DDA3D.obj
 0001:001b7b50       c58_f_eml_scalar_eg        00000001801b8b50 f   c58_Walking01_DDA3D.obj
 0001:001b7b60       c58_g_eml_scalar_eg        00000001801b8b60 f   c58_Walking01_DDA3D.obj
 0001:001b7b70       c58_inv                    00000001801b8b70 f   c58_Walking01_DDA3D.obj
 0001:001b8170       c58_emlrt_marshallIn       00000001801b9170 f   c58_Walking01_DDA3D.obj
 0001:001b81e0       c58_b_emlrt_marshallIn     00000001801b91e0 f   c58_Walking01_DDA3D.obj
 0001:001b82e0       c58_eps                    00000001801b92e0 f   c58_Walking01_DDA3D.obj
 0001:001b82f0       c58_invNxN                 00000001801b92f0 f   c58_Walking01_DDA3D.obj
 0001:001b8850       c58_eml_ipiv2perm          00000001801b9850 f   c58_Walking01_DDA3D.obj
 0001:001b8a60       c58_norm                   00000001801b9a60 f   c58_Walking01_DDA3D.obj
 0001:001b8be0       c58_b_eml_warning          00000001801b9be0 f   c58_Walking01_DDA3D.obj
 0001:001b8e10       c58_eye                    00000001801b9e10 f   c58_Walking01_DDA3D.obj
 0001:001b8eb0       c58_b_mldivide             00000001801b9eb0 f   c58_Walking01_DDA3D.obj
 0001:001b91f0       c58_h_eml_scalar_eg        00000001801ba1f0 f   c58_Walking01_DDA3D.obj
 0001:001b9200       c58_c_rdivide              00000001801ba200 f   c58_Walking01_DDA3D.obj
 0001:001b9280       c58_d_eml_matlab_zgetrf    00000001801ba280 f   c58_Walking01_DDA3D.obj
 0001:001b9eb0       c58_realmin                00000001801baeb0 f   c58_Walking01_DDA3D.obj
 0001:001b9ec0       c58_c_threshold            00000001801baec0 f   c58_Walking01_DDA3D.obj
 0001:001b9ed0       c58_check_forloop_overflow_error 00000001801baed0 f   c58_Walking01_DDA3D.obj
 0001:001ba0f0       c58_b_eml_switch_helper    00000001801bb0f0 f   c58_Walking01_DDA3D.obj
 0001:001ba100       c58_d_eml_xgeru            00000001801bb100 f   c58_Walking01_DDA3D.obj
 0001:001ba6e0       c58_d_threshold            00000001801bb6e0 f   c58_Walking01_DDA3D.obj
 0001:001ba6f0       c58_f_eml_xtrsm            00000001801bb6f0 f   c58_Walking01_DDA3D.obj
 0001:001ba840       c58_below_threshold        00000001801bb840 f   c58_Walking01_DDA3D.obj
 0001:001ba860       c58_c_eml_switch_helper    00000001801bb860 f   c58_Walking01_DDA3D.obj
 0001:001ba870       c58_scalarEg               00000001801bb870 f   c58_Walking01_DDA3D.obj
 0001:001ba880       c58_g_eml_xtrsm            00000001801bb880 f   c58_Walking01_DDA3D.obj
 0001:001baa10       c58_e_eml_matlab_zgetrf    00000001801bba10 f   c58_Walking01_DDA3D.obj
 0001:001bb840       c58_e_eml_xgeru            00000001801bc840 f   c58_Walking01_DDA3D.obj
 0001:001bbe10       c58_h_eml_xtrsm            00000001801bce10 f   c58_Walking01_DDA3D.obj
 0001:001bc010       c58_f_eml_matlab_zgetrf    00000001801bd010 f   c58_Walking01_DDA3D.obj
 0001:001bce40       c58_f_eml_xgeru            00000001801bde40 f   c58_Walking01_DDA3D.obj
 0001:001bd410       c58_i_eml_xtrsm            00000001801be410 f   c58_Walking01_DDA3D.obj
 0001:001bd560       c58_b_below_threshold      00000001801be560 f   c58_Walking01_DDA3D.obj
 0001:001bd580       c58_b_scalarEg             00000001801be580 f   c58_Walking01_DDA3D.obj
 0001:001bd590       c58_j_eml_xtrsm            00000001801be590 f   c58_Walking01_DDA3D.obj
 0001:001bd720       sf_opaque_get_sim_state_c58_Walking01_DDA3D 00000001801be720 f   c58_Walking01_DDA3D.obj
 0001:001bd770       get_sim_state_c58_Walking01_DDA3D 00000001801be770 f   c58_Walking01_DDA3D.obj
 0001:001be550       sf_opaque_set_sim_state_c58_Walking01_DDA3D 00000001801bf550 f   c58_Walking01_DDA3D.obj
 0001:001be5a0       set_sim_state_c58_Walking01_DDA3D 00000001801bf5a0 f   c58_Walking01_DDA3D.obj
 0001:001bedc0       c58_update_debugger_state_c58_Walking01_DDA3D 00000001801bfdc0 f   c58_Walking01_DDA3D.obj
 0001:001bedd0       c58_c_emlrt_marshallIn     00000001801bfdd0 f   c58_Walking01_DDA3D.obj
 0001:001bee40       c58_e_emlrt_marshallIn     00000001801bfe40 f   c58_Walking01_DDA3D.obj
 0001:001beeb0       c58_g_emlrt_marshallIn     00000001801bfeb0 f   c58_Walking01_DDA3D.obj
 0001:001bef20       c58_qb_emlrt_marshallIn    00000001801bff20 f   c58_Walking01_DDA3D.obj
 0001:001bef80       c58_rb_emlrt_marshallIn    00000001801bff80 f   c58_Walking01_DDA3D.obj
 0001:001bf010       sf_opaque_terminate_c58_Walking01_DDA3D 00000001801c0010 f   c58_Walking01_DDA3D.obj
 0001:001bf0b0       finalize_c58_Walking01_DDA3D 00000001801c00b0 f   c58_Walking01_DDA3D.obj
 0001:001bf0c0       sf_opaque_init_subchart_simstructs 00000001801c00c0 f   c58_Walking01_DDA3D.obj
 0001:001bf0e0       initSimStructsc58_Walking01_DDA3D 00000001801c00e0 f   c58_Walking01_DDA3D.obj
 0001:001bf0f0       mdlRTW_c58_Walking01_DDA3D 00000001801c00f0 f   c58_Walking01_DDA3D.obj
 0001:001bf1e0       c59_info_helper            00000001801c01e0 f   c59_Walking01_DDA3D.obj
 0001:001c8e50       c59_emlrt_marshallOut      00000001801c9e50 f   c59_Walking01_DDA3D.obj
 0001:001c8ee0       c59_b_emlrt_marshallOut    00000001801c9ee0 f   c59_Walking01_DDA3D.obj
 0001:001c8f50       c59_b_info_helper          00000001801c9f50 f   c59_Walking01_DDA3D.obj
 0001:001d2bc0       c59_c_info_helper          00000001801d3bc0 f   c59_Walking01_DDA3D.obj
 0001:001dc830       c59_d_info_helper          00000001801dd830 f   c59_Walking01_DDA3D.obj
 0001:001e64a0       c59_e_info_helper          00000001801e74a0 f   c59_Walking01_DDA3D.obj
 0001:001f0110       c59_f_info_helper          00000001801f1110 f   c59_Walking01_DDA3D.obj
 0001:001f9d90       c59_g_info_helper          00000001801fad90 f   c59_Walking01_DDA3D.obj
 0001:00204400       mdlProcessParameters_c59_Walking01_DDA3D 0000000180205400 f   c59_Walking01_DDA3D.obj
 0001:002044e0       initialize_params_c59_Walking01_DDA3D 00000001802054e0 f   c59_Walking01_DDA3D.obj
 0001:002047e0       mdlSetWorkWidths_c59_Walking01_DDA3D 00000001802057e0 f   c59_Walking01_DDA3D.obj
 0001:00205300       sf_get_instance_specialization 0000000180206300 f   c59_Walking01_DDA3D.obj
 0001:00205310       sf_set_sfun_dwork_info     0000000180206310 f   c59_Walking01_DDA3D.obj
 0001:00205370       mdlStart_c59_Walking01_DDA3D 0000000180206370 f   c59_Walking01_DDA3D.obj
 0001:002055f0       init_dsm_address_info      00000001802065f0 f   c59_Walking01_DDA3D.obj
 0001:00205600       init_simulink_io_address   0000000180206600 f   c59_Walking01_DDA3D.obj
 0001:00205bb0       sf_get_sim_state_info_c59_Walking01_DDA3D 0000000180206bb0 f   c59_Walking01_DDA3D.obj
 0001:00205ca0       chart_debug_initialization 0000000180206ca0 f   c59_Walking01_DDA3D.obj
 0001:00215c90       init_script_number_translation 0000000180216c90 f   c59_Walking01_DDA3D.obj
 0001:00216190       c59_sf_marshallOut         0000000180217190 f   c59_Walking01_DDA3D.obj
 0001:00216240       c59_sf_marshallIn          0000000180217240 f   c59_Walking01_DDA3D.obj
 0001:002162e0       c59_c_emlrt_marshallIn     00000001802172e0 f   c59_Walking01_DDA3D.obj
 0001:00216370       c59_b_sf_marshallOut       0000000180217370 f   c59_Walking01_DDA3D.obj
 0001:00216420       c59_b_sf_marshallIn        0000000180217420 f   c59_Walking01_DDA3D.obj
 0001:002164c0       c59_e_emlrt_marshallIn     00000001802174c0 f   c59_Walking01_DDA3D.obj
 0001:00216550       c59_c_sf_marshallOut       0000000180217550 f   c59_Walking01_DDA3D.obj
 0001:00216670       c59_c_sf_marshallIn        0000000180217670 f   c59_Walking01_DDA3D.obj
 0001:00216740       c59_f_emlrt_marshallIn     0000000180217740 f   c59_Walking01_DDA3D.obj
 0001:00216810       c59_e_sf_marshallOut       0000000180217810 f   c59_Walking01_DDA3D.obj
 0001:00216990       c59_i_sf_marshallOut       0000000180217990 f   c59_Walking01_DDA3D.obj
 0001:00216b00       c59_p_sf_marshallOut       0000000180217b00 f   c59_Walking01_DDA3D.obj
 0001:0021c650       c59_p_sf_marshallIn        000000018021d650 f   c59_Walking01_DDA3D.obj
 0001:0021c750       c59_t_emlrt_marshallIn     000000018021d750 f   c59_Walking01_DDA3D.obj
 0001:0021c9e0       c59_u_emlrt_marshallIn     000000018021d9e0 f   c59_Walking01_DDA3D.obj
 0001:0021de70       c59_h_emlrt_marshallIn     000000018021ee70 f   c59_Walking01_DDA3D.obj
 0001:0021df60       c59_l_emlrt_marshallIn     000000018021ef60 f   c59_Walking01_DDA3D.obj
 0001:0021e050       c59_v_emlrt_marshallIn     000000018021f050 f   c59_Walking01_DDA3D.obj
 0001:0021e150       c59_w_emlrt_marshallIn     000000018021f150 f   c59_Walking01_DDA3D.obj
 0001:0021e260       c59_x_emlrt_marshallIn     000000018021f260 f   c59_Walking01_DDA3D.obj
 0001:0021e600       c59_y_emlrt_marshallIn     000000018021f600 f   c59_Walking01_DDA3D.obj
 0001:0021ed70       c59_g_emlrt_marshallIn     000000018021fd70 f   c59_Walking01_DDA3D.obj
 0001:0021ee80       c59_k_emlrt_marshallIn     000000018021fe80 f   c59_Walking01_DDA3D.obj
 0001:0021ef60       c59_p_emlrt_marshallIn     000000018021ff60 f   c59_Walking01_DDA3D.obj
 0001:0021f070       c59_q_emlrt_marshallIn     0000000180220070 f   c59_Walking01_DDA3D.obj
 0001:0021f180       c59_r_emlrt_marshallIn     0000000180220180 f   c59_Walking01_DDA3D.obj
 0001:0021f280       c59_ab_emlrt_marshallIn    0000000180220280 f   c59_Walking01_DDA3D.obj
 0001:0021f480       c59_i_emlrt_marshallIn     0000000180220480 f   c59_Walking01_DDA3D.obj
 0001:0021f590       c59_bb_emlrt_marshallIn    0000000180220590 f   c59_Walking01_DDA3D.obj
 0001:0021f690       c59_cb_emlrt_marshallIn    0000000180220690 f   c59_Walking01_DDA3D.obj
 0001:0021f7a0       c59_db_emlrt_marshallIn    00000001802207a0 f   c59_Walking01_DDA3D.obj
 0001:00220190       c59_eb_emlrt_marshallIn    0000000180221190 f   c59_Walking01_DDA3D.obj
 0001:002204a0       c59_q_sf_marshallOut       00000001802214a0 f   c59_Walking01_DDA3D.obj
 0001:002209b0       c59_q_sf_marshallIn        00000001802219b0 f   c59_Walking01_DDA3D.obj
 0001:00220ad0       c59_gb_emlrt_marshallIn    0000000180221ad0 f   c59_Walking01_DDA3D.obj
 0001:00220db0       c59_u_sf_marshallOut       0000000180221db0 f   c59_Walking01_DDA3D.obj
 0001:00220f20       c59_u_sf_marshallIn        0000000180221f20 f   c59_Walking01_DDA3D.obj
 0001:00221020       c59_ControlParamsIn_bus_io 0000000180222020 f   c59_Walking01_DDA3D.obj
 0001:00222580       c59_AllOutputs_bus_io      0000000180223580 f   c59_Walking01_DDA3D.obj
 0001:00222f50       c59_eb_sf_marshallOut      0000000180223f50 f   c59_Walking01_DDA3D.obj
 0001:002248a0       c59_ControlState_bus_io    00000001802258a0 f   c59_Walking01_DDA3D.obj
 0001:002249b0       c59_ib_sf_marshallOut      00000001802259b0 f   c59_Walking01_DDA3D.obj
 0001:00224be0       c59_hb_sf_marshallIn       0000000180225be0 f   c59_Walking01_DDA3D.obj
 0001:00224d80       c59_wb_emlrt_marshallIn    0000000180225d80 f   c59_Walking01_DDA3D.obj
 0001:00224e80       sf_opaque_initialize_c59_Walking01_DDA3D 0000000180225e80 f   c59_Walking01_DDA3D.obj
 0001:00224ed0       initialize_c59_Walking01_DDA3D 0000000180225ed0 f   c59_Walking01_DDA3D.obj
 0001:002279e0       sf_check_dwork_consistency 00000001802289e0 f   c59_Walking01_DDA3D.obj
 0001:00227ad0       sf_opaque_enable_c59_Walking01_DDA3D 0000000180228ad0 f   c59_Walking01_DDA3D.obj
 0001:00227af0       enable_c59_Walking01_DDA3D 0000000180228af0 f   c59_Walking01_DDA3D.obj
 0001:00227b20       sf_opaque_disable_c59_Walking01_DDA3D 0000000180228b20 f   c59_Walking01_DDA3D.obj
 0001:00227b40       disable_c59_Walking01_DDA3D 0000000180228b40 f   c59_Walking01_DDA3D.obj
 0001:00227b70       sf_opaque_gateway_c59_Walking01_DDA3D 0000000180228b70 f   c59_Walking01_DDA3D.obj
 0001:00227b90       sf_gateway_c59_Walking01_DDA3D 0000000180228b90 f   c59_Walking01_DDA3D.obj
 0001:002287a0       c59_set_sim_state_side_effects_c59_Walking01_DDA3D 00000001802297a0 f   c59_Walking01_DDA3D.obj
 0001:00228a30       c59_c59_Walking01_DDA3D    0000000180229a30 f   c59_Walking01_DDA3D.obj
 0001:002293c0       c59_Main                   000000018022a3c0 f   c59_Walking01_DDA3D.obj
 0001:00231170       c59_Run                    0000000180232170 f   c59_Walking01_DDA3D.obj
 0001:00236e90       c59_exit_internal_Run      0000000180237e90 f   c59_Walking01_DDA3D.obj
 0001:00238480       c59_Support                0000000180239480 f   c59_Walking01_DDA3D.obj
 0001:0023c0c0       c59_enter_atomic_LeftSingle 000000018023d0c0 f   c59_Walking01_DDA3D.obj
 0001:0023c2b0       c59_enter_atomic_RightSingle 000000018023d2b0 f   c59_Walking01_DDA3D.obj
 0001:0023c4a0       c59_ControllerMode         000000018023d4a0 f   c59_Walking01_DDA3D.obj
 0001:0023fc90       c59_Transition             0000000180240c90 f   c59_Walking01_DDA3D.obj
 0001:002423a0       c59_enter_atomic_Walking   00000001802433a0 f   c59_Walking01_DDA3D.obj
 0001:002425e0       c59_Serialize              00000001802435e0 f   c59_Walking01_DDA3D.obj
 0001:002448a0       c59_checkImpact            00000001802458a0 f   c59_Walking01_DDA3D.obj
 0001:00245c00       c59_checkMode              0000000180246c00 f   c59_Walking01_DDA3D.obj
 0001:00246dd0       c59_checkSupport           0000000180247dd0 f   c59_Walking01_DDA3D.obj
 0001:00247e00       c59_updateLegAngles        0000000180248e00 f   c59_Walking01_DDA3D.obj
 0001:002493a0       c59_sat                    000000018024a3a0 f   c59_Walking01_DDA3D.obj
 0001:00249960       c59_d_sf_marshallOut       000000018024a960 f   c59_Walking01_DDA3D.obj
 0001:00249b80       c59_d_sf_marshallIn        000000018024ab80 f   c59_Walking01_DDA3D.obj
 0001:00249ce0       c59_e_sf_marshallIn        000000018024ace0 f   c59_Walking01_DDA3D.obj
 0001:00249df0       c59_updateS                000000018024adf0 f   c59_Walking01_DDA3D.obj
 0001:0024c0f0       c59_ATRIAS3D_ZD_Output03   000000018024d0f0 f   c59_Walking01_DDA3D.obj
 0001:00254d50       c59_ATRIAS3D_ZD_s6         0000000180255d50 f   c59_Walking01_DDA3D.obj
 0001:00255ba0       c59_b_sat                  0000000180256ba0 f   c59_Walking01_DDA3D.obj
 0001:00256090       c59_bezierv                0000000180257090 f   c59_Walking01_DDA3D.obj
 0001:00257550       c59_beziervd               0000000180258550 f   c59_Walking01_DDA3D.obj
 0001:00258a50       c59_bezierva               0000000180259a50 f   c59_Walking01_DDA3D.obj
 0001:00259f90       c59_bezier                 000000018025af90 f   c59_Walking01_DDA3D.obj
 0001:0025b8c0       c59_bezierd                000000018025c8c0 f   c59_Walking01_DDA3D.obj
 0001:0025c820       c59_beziera                000000018025d820 f   c59_Walking01_DDA3D.obj
 0001:0025d780       c59_polyv                  000000018025e780 f   c59_Walking01_DDA3D.obj
 0001:0025e230       c59_polyvd                 000000018025f230 f   c59_Walking01_DDA3D.obj
 0001:0025ed10       c59_polyva                 000000018025fd10 f   c59_Walking01_DDA3D.obj
 0001:0025f6e0       c59_c_sat                  00000001802606e0 f   c59_Walking01_DDA3D.obj
 0001:0025fca0       c59_f_sf_marshallOut       0000000180260ca0 f   c59_Walking01_DDA3D.obj
 0001:0025fe20       c59_f_sf_marshallIn        0000000180260e20 f   c59_Walking01_DDA3D.obj
 0001:0025ff40       c59_g_sf_marshallOut       0000000180260f40 f   c59_Walking01_DDA3D.obj
 0001:002600c0       c59_g_sf_marshallIn        00000001802610c0 f   c59_Walking01_DDA3D.obj
 0001:002601e0       c59_j_emlrt_marshallIn     00000001802611e0 f   c59_Walking01_DDA3D.obj
 0001:002602f0       c59_h_sf_marshallOut       00000001802612f0 f   c59_Walking01_DDA3D.obj
 0001:00260430       c59_h_sf_marshallIn        0000000180261430 f   c59_Walking01_DDA3D.obj
 0001:00260500       c59_i_sf_marshallIn        0000000180261500 f   c59_Walking01_DDA3D.obj
 0001:00260630       c59_j_sf_marshallOut       0000000180261630 f   c59_Walking01_DDA3D.obj
 0001:002607a0       c59_j_sf_marshallIn        00000001802617a0 f   c59_Walking01_DDA3D.obj
 0001:002608b0       c59_m_emlrt_marshallIn     00000001802618b0 f   c59_Walking01_DDA3D.obj
 0001:002609c0       c59_k_sf_marshallOut       00000001802619c0 f   c59_Walking01_DDA3D.obj
 0001:00260b30       c59_k_sf_marshallIn        0000000180261b30 f   c59_Walking01_DDA3D.obj
 0001:00260c30       c59_n_emlrt_marshallIn     0000000180261c30 f   c59_Walking01_DDA3D.obj
 0001:00260d40       c59_l_sf_marshallOut       0000000180261d40 f   c59_Walking01_DDA3D.obj
 0001:00260eb0       c59_l_sf_marshallIn        0000000180261eb0 f   c59_Walking01_DDA3D.obj
 0001:00260fb0       c59_o_emlrt_marshallIn     0000000180261fb0 f   c59_Walking01_DDA3D.obj
 0001:002610c0       c59_m_sf_marshallOut       00000001802620c0 f   c59_Walking01_DDA3D.obj
 0001:00261230       c59_m_sf_marshallIn        0000000180262230 f   c59_Walking01_DDA3D.obj
 0001:00261350       c59_n_sf_marshallOut       0000000180262350 f   c59_Walking01_DDA3D.obj
 0001:00261590       c59_n_sf_marshallIn        0000000180262590 f   c59_Walking01_DDA3D.obj
 0001:002616f0       c59_o_sf_marshallOut       00000001802626f0 f   c59_Walking01_DDA3D.obj
 0001:00261940       c59_o_sf_marshallIn        0000000180262940 f   c59_Walking01_DDA3D.obj
 0001:00261aa0       c59_r_sf_marshallOut       0000000180262aa0 f   c59_Walking01_DDA3D.obj
 0001:00261be0       c59_r_sf_marshallIn        0000000180262be0 f   c59_Walking01_DDA3D.obj
 0001:00261cd0       c59_hb_emlrt_marshallIn    0000000180262cd0 f   c59_Walking01_DDA3D.obj
 0001:00261db0       c59_s_sf_marshallOut       0000000180262db0 f   c59_Walking01_DDA3D.obj
 0001:00263220       c59_s_sf_marshallIn        0000000180264220 f   c59_Walking01_DDA3D.obj
 0001:00263320       c59_checkTransition        0000000180264320 f   c59_Walking01_DDA3D.obj
 0001:00263de0       c59_updateControl          0000000180264de0 f   c59_Walking01_DDA3D.obj
 0001:00267420       c59_updateBasicWalkingControl04 0000000180268420 f   c59_Walking01_DDA3D.obj
 0001:0026b0a0       c59_bezierval              000000018026c0a0 f   c59_Walking01_DDA3D.obj
 0001:0026ba30       c59_ATRIAS3D_ZD_Output02   000000018026ca30 f   c59_Walking01_DDA3D.obj
 0001:00271800       c59_d_sat                  0000000180272800 f   c59_Walking01_DDA3D.obj
 0001:00271dc0       c59_UpdateBezierFirstTwoDDA 0000000180272dc0 f   c59_Walking01_DDA3D.obj
 0001:002754e0       c59_Update_q               00000001802764e0 f   c59_Walking01_DDA3D.obj
 0001:002781a0       c59_ATRIAS2D_SS_s_RigidBAG 00000001802791a0 f   c59_Walking01_DDA3D.obj
 0001:00278ce0       c59_halphaColumnShiftReset 0000000180279ce0 f   c59_Walking01_DDA3D.obj
 0001:0027af90       c59_updateHAlpha_s05       000000018027bf90 f   c59_Walking01_DDA3D.obj
 0001:0027e790       c59_ATRIAS2D_ZD_TransformBAG 000000018027f790 f   c59_Walking01_DDA3D.obj
 0001:0027f4a0       c59_b_Update_q             00000001802804a0 f   c59_Walking01_DDA3D.obj
 0001:00282130       c59_bezierterm             0000000180283130 f   c59_Walking01_DDA3D.obj
 0001:002828c0       c59_t_sf_marshallOut       00000001802838c0 f   c59_Walking01_DDA3D.obj
 0001:00282a10       c59_t_sf_marshallIn        0000000180283a10 f   c59_Walking01_DDA3D.obj
 0001:00282b10       c59_ib_emlrt_marshallIn    0000000180283b10 f   c59_Walking01_DDA3D.obj
 0001:00282c00       c59_v_sf_marshallOut       0000000180283c00 f   c59_Walking01_DDA3D.obj
 0001:00282d50       c59_v_sf_marshallIn        0000000180283d50 f   c59_Walking01_DDA3D.obj
 0001:00282e50       c59_kb_emlrt_marshallIn    0000000180283e50 f   c59_Walking01_DDA3D.obj
 0001:00282f40       c59_w_sf_marshallOut       0000000180283f40 f   c59_Walking01_DDA3D.obj
 0001:00283150       c59_x_sf_marshallOut       0000000180284150 f   c59_Walking01_DDA3D.obj
 0001:00283390       c59_w_sf_marshallIn        0000000180284390 f   c59_Walking01_DDA3D.obj
 0001:002834f0       c59_lb_emlrt_marshallIn    00000001802844f0 f   c59_Walking01_DDA3D.obj
 0001:00283600       c59_y_sf_marshallOut       0000000180284600 f   c59_Walking01_DDA3D.obj
 0001:00283820       c59_x_sf_marshallIn        0000000180284820 f   c59_Walking01_DDA3D.obj
 0001:00283980       c59_mb_emlrt_marshallIn    0000000180284980 f   c59_Walking01_DDA3D.obj
 0001:00283a80       c59_ab_sf_marshallOut      0000000180284a80 f   c59_Walking01_DDA3D.obj
 0001:00283c60       c59_y_sf_marshallIn        0000000180284c60 f   c59_Walking01_DDA3D.obj
 0001:00283da0       c59_nb_emlrt_marshallIn    0000000180284da0 f   c59_Walking01_DDA3D.obj
 0001:00283ee0       c59_bb_sf_marshallOut      0000000180284ee0 f   c59_Walking01_DDA3D.obj
 0001:00284120       c59_ab_sf_marshallIn       0000000180285120 f   c59_Walking01_DDA3D.obj
 0001:002842b0       c59_ob_emlrt_marshallIn    00000001802852b0 f   c59_Walking01_DDA3D.obj
 0001:00284490       c59_cb_sf_marshallOut      0000000180285490 f   c59_Walking01_DDA3D.obj
 0001:002846d0       c59_bb_sf_marshallIn       00000001802856d0 f   c59_Walking01_DDA3D.obj
 0001:00284830       c59_pb_emlrt_marshallIn    0000000180285830 f   c59_Walking01_DDA3D.obj
 0001:00284a30       c59_db_sf_marshallOut      0000000180285a30 f   c59_Walking01_DDA3D.obj
 0001:002851a0       c59_cb_sf_marshallIn       00000001802861a0 f   c59_Walking01_DDA3D.obj
 0001:002852a0       c59_db_sf_marshallIn       00000001802862a0 f   c59_Walking01_DDA3D.obj
 0001:002853f0       c59_qb_emlrt_marshallIn    00000001802863f0 f   c59_Walking01_DDA3D.obj
 0001:00285cc0       c59_checkError             0000000180286cc0 f   c59_Walking01_DDA3D.obj
 0001:00287cc0       c59_b_ATRIAS3D_ZD_Output03 0000000180288cc0 f   c59_Walking01_DDA3D.obj
 0001:00290830       c59_sendSerial             0000000180291830 f   c59_Walking01_DDA3D.obj
 0001:00291c80       c59_initSerial             0000000180292c80 f   c59_Walking01_DDA3D.obj
 0001:00294690       c59_serializeControlParamsBus 0000000180295690 f   c59_Walking01_DDA3D.obj
 0001:002995e0       c59_fb_sf_marshallOut      000000018029a5e0 f   c59_Walking01_DDA3D.obj
 0001:00299760       c59_eb_sf_marshallIn       000000018029a760 f   c59_Walking01_DDA3D.obj
 0001:00299880       c59_rb_emlrt_marshallIn    000000018029a880 f   c59_Walking01_DDA3D.obj
 0001:00299970       c59_eml_scalar_eg          000000018029a970 f   c59_Walking01_DDA3D.obj
 0001:00299980       c59_threshold              000000018029a980 f   c59_Walking01_DDA3D.obj
 0001:00299990       c59_rdivide                000000018029a990 f   c59_Walking01_DDA3D.obj
 0001:002999f0       c59_mpower                 000000018029a9f0 f   c59_Walking01_DDA3D.obj
 0001:00299a20       c59_power                  000000018029aa20 f   c59_Walking01_DDA3D.obj
 0001:00299a80       c59_b_eml_scalar_eg        000000018029aa80 f   c59_Walking01_DDA3D.obj
 0001:00299a90       c59_c_eml_scalar_eg        000000018029aa90 f   c59_Walking01_DDA3D.obj
 0001:00299aa0       c59_eml_switch_helper      000000018029aaa0 f   c59_Walking01_DDA3D.obj
 0001:00299ab0       c59_b_threshold            000000018029aab0 f   c59_Walking01_DDA3D.obj
 0001:00299ac0       c59_eml_li_find            000000018029aac0 f   c59_Walking01_DDA3D.obj
 0001:00299c40       c59_repmat                 000000018029ac40 f   c59_Walking01_DDA3D.obj
 0001:00299ca0       c59_b_repmat               000000018029aca0 f   c59_Walking01_DDA3D.obj
 0001:00299d00       c59_realmax                000000018029ad00 f   c59_Walking01_DDA3D.obj
 0001:00299d10       c59_b_eml_li_find          000000018029ad10 f   c59_Walking01_DDA3D.obj
 0001:0029a0b0       c59_d_eml_scalar_eg        000000018029b0b0 f   c59_Walking01_DDA3D.obj
 0001:0029a0c0       c59_any                    000000018029b0c0 f   c59_Walking01_DDA3D.obj
 0001:0029a140       c59_nchoosek               000000018029b140 f   c59_Walking01_DDA3D.obj
 0001:0029a480       c59_isfinite               000000018029b480 f   c59_Walking01_DDA3D.obj
 0001:0029a550       c59_eml_warning            000000018029b550 f   c59_Walking01_DDA3D.obj
 0001:0029a6a0       c59_b_power                000000018029b6a0 f   c59_Walking01_DDA3D.obj
 0001:0029a7b0       c59_eml_error              000000018029b7b0 f   c59_Walking01_DDA3D.obj
 0001:0029a900       c59_e_eml_scalar_eg        000000018029b900 f   c59_Walking01_DDA3D.obj
 0001:0029a910       c59_inv                    000000018029b910 f   c59_Walking01_DDA3D.obj
 0001:0029ae80       c59_emlrt_marshallIn       000000018029be80 f   c59_Walking01_DDA3D.obj
 0001:0029aef0       c59_b_emlrt_marshallIn     000000018029bef0 f   c59_Walking01_DDA3D.obj
 0001:0029aff0       c59_eps                    000000018029bff0 f   c59_Walking01_DDA3D.obj
 0001:0029b000       c59_norm                   000000018029c000 f   c59_Walking01_DDA3D.obj
 0001:0029b130       c59_b_eml_warning          000000018029c130 f   c59_Walking01_DDA3D.obj
 0001:0029b280       c59_c_eml_warning          000000018029c280 f   c59_Walking01_DDA3D.obj
 0001:0029b490       c59_f_eml_scalar_eg        000000018029c490 f   c59_Walking01_DDA3D.obj
 0001:0029b4a0       c59_b_mpower               000000018029c4a0 f   c59_Walking01_DDA3D.obj
 0001:0029b520       c59_g_eml_scalar_eg        000000018029c520 f   c59_Walking01_DDA3D.obj
 0001:0029b530       c59_do_vectors             000000018029c530 f   c59_Walking01_DDA3D.obj
 0001:0029c020       c59_h_eml_scalar_eg        000000018029d020 f   c59_Walking01_DDA3D.obj
 0001:0029c030       c59_mod                    000000018029d030 f   c59_Walking01_DDA3D.obj
 0001:0029c280       c59_b_skip_to_last_equal_value 000000018029d280 f   c59_Walking01_DDA3D.obj
 0001:0029c660       c59_b_eml_xgemm            000000018029d660 f   c59_Walking01_DDA3D.obj
 0001:0029ccd0       c59_use_refblas            000000018029dcd0 f   c59_Walking01_DDA3D.obj
 0001:0029cce0       c59_below_threshold        000000018029dce0 f   c59_Walking01_DDA3D.obj
 0001:0029cd00       sf_opaque_ext_mode_exec_c59_Walking01_DDA3D 000000018029dd00 f   c59_Walking01_DDA3D.obj
 0001:0029cd20       ext_mode_exec_c59_Walking01_DDA3D 000000018029dd20 f   c59_Walking01_DDA3D.obj
 0001:0029cd40       c59_update_debugger_state_c59_Walking01_DDA3D 000000018029dd40 f   c59_Walking01_DDA3D.obj
 0001:0029f310       sf_opaque_get_sim_state_c59_Walking01_DDA3D 00000001802a0310 f   c59_Walking01_DDA3D.obj
 0001:0029f360       get_sim_state_c59_Walking01_DDA3D 00000001802a0360 f   c59_Walking01_DDA3D.obj
 0001:002ae020       sf_opaque_set_sim_state_c59_Walking01_DDA3D 00000001802af020 f   c59_Walking01_DDA3D.obj
 0001:002ae070       set_sim_state_c59_Walking01_DDA3D 00000001802af070 f   c59_Walking01_DDA3D.obj
 0001:002b0490       c59_d_emlrt_marshallIn     00000001802b1490 f   c59_Walking01_DDA3D.obj
 0001:002b0500       c59_s_emlrt_marshallIn     00000001802b1500 f   c59_Walking01_DDA3D.obj
 0001:002b0570       c59_fb_emlrt_marshallIn    00000001802b1570 f   c59_Walking01_DDA3D.obj
 0001:002b0660       c59_jb_emlrt_marshallIn    00000001802b1660 f   c59_Walking01_DDA3D.obj
 0001:002b06d0       c59_tb_emlrt_marshallIn    00000001802b16d0 f   c59_Walking01_DDA3D.obj
 0001:002b0730       c59_ub_emlrt_marshallIn    00000001802b1730 f   c59_Walking01_DDA3D.obj
 0001:002b07c0       c59_vb_emlrt_marshallIn    00000001802b17c0 f   c59_Walking01_DDA3D.obj
 0001:002b0830       c59_xb_emlrt_marshallIn    00000001802b1830 f   c59_Walking01_DDA3D.obj
 0001:002b0890       c59_yb_emlrt_marshallIn    00000001802b1890 f   c59_Walking01_DDA3D.obj
 0001:002b0920       c59_ac_emlrt_marshallIn    00000001802b1920 f   c59_Walking01_DDA3D.obj
 0001:002b09a0       c59_bc_emlrt_marshallIn    00000001802b19a0 f   c59_Walking01_DDA3D.obj
 0001:002b0a00       sf_opaque_terminate_c59_Walking01_DDA3D 00000001802b1a00 f   c59_Walking01_DDA3D.obj
 0001:002b0aa0       finalize_c59_Walking01_DDA3D 00000001802b1aa0 f   c59_Walking01_DDA3D.obj
 0001:002b0ad0       sf_opaque_init_subchart_simstructs 00000001802b1ad0 f   c59_Walking01_DDA3D.obj
 0001:002b0af0       initSimStructsc59_Walking01_DDA3D 00000001802b1af0 f   c59_Walking01_DDA3D.obj
 0001:002b0b00       sf_get_sfun_dwork_checksum 00000001802b1b00 f   c59_Walking01_DDA3D.obj
 0001:002b0b10       mdlRTW_c59_Walking01_DDA3D 00000001802b1b10 f   c59_Walking01_DDA3D.obj
 0001:002b0bd0       c60_info_helper            00000001802b1bd0 f   c60_Walking01_DDA3D.obj
 0001:002ba840       c60_emlrt_marshallOut      00000001802bb840 f   c60_Walking01_DDA3D.obj
 0001:002ba8d0       c60_b_emlrt_marshallOut    00000001802bb8d0 f   c60_Walking01_DDA3D.obj
 0001:002ba940       c60_b_info_helper          00000001802bb940 f   c60_Walking01_DDA3D.obj
 0001:002c45b0       c60_c_info_helper          00000001802c55b0 f   c60_Walking01_DDA3D.obj
 0001:002c9a60       mdlProcessParameters_c60_Walking01_DDA3D 00000001802caa60 f   c60_Walking01_DDA3D.obj
 0001:002c9b40       initialize_params_c60_Walking01_DDA3D 00000001802cab40 f   c60_Walking01_DDA3D.obj
 0001:002c9b50       mdlSetWorkWidths_c60_Walking01_DDA3D 00000001802cab50 f   c60_Walking01_DDA3D.obj
 0001:002ca1a0       sf_get_instance_specialization 00000001802cb1a0 f   c60_Walking01_DDA3D.obj
 0001:002ca1b0       mdlStart_c60_Walking01_DDA3D 00000001802cb1b0 f   c60_Walking01_DDA3D.obj
 0001:002ca430       init_dsm_address_info      00000001802cb430 f   c60_Walking01_DDA3D.obj
 0001:002ca440       init_simulink_io_address   00000001802cb440 f   c60_Walking01_DDA3D.obj
 0001:002ca5e0       sf_get_sim_state_info_c60_Walking01_DDA3D 00000001802cb5e0 f   c60_Walking01_DDA3D.obj
 0001:002ca6a0       chart_debug_initialization 00000001802cb6a0 f   c60_Walking01_DDA3D.obj
 0001:002cc510       init_script_number_translation 00000001802cd510 f   c60_Walking01_DDA3D.obj
 0001:002cc600       c60_sf_marshallOut         00000001802cd600 f   c60_Walking01_DDA3D.obj
 0001:002cc6b0       c60_sf_marshallIn          00000001802cd6b0 f   c60_Walking01_DDA3D.obj
 0001:002cc750       c60_b_emlrt_marshallIn     00000001802cd750 f   c60_Walking01_DDA3D.obj
 0001:002cc7e0       c60_b_sf_marshallOut       00000001802cd7e0 f   c60_Walking01_DDA3D.obj
 0001:002cc960       c60_b_sf_marshallIn        00000001802cd960 f   c60_Walking01_DDA3D.obj
 0001:002cca70       c60_d_emlrt_marshallIn     00000001802cda70 f   c60_Walking01_DDA3D.obj
 0001:002ccb70       c60_c_sf_marshallOut       00000001802cdb70 f   c60_Walking01_DDA3D.obj
 0001:002cccc0       c60_d_sf_marshallOut       00000001802cdcc0 f   c60_Walking01_DDA3D.obj
 0001:002cce50       c60_e_sf_marshallOut       00000001802cde50 f   c60_Walking01_DDA3D.obj
 0001:002ccf00       sf_opaque_initialize_c60_Walking01_DDA3D 00000001802cdf00 f   c60_Walking01_DDA3D.obj
 0001:002ccf40       initialize_c60_Walking01_DDA3D 00000001802cdf40 f   c60_Walking01_DDA3D.obj
 0001:002ccf90       sf_opaque_enable_c60_Walking01_DDA3D 00000001802cdf90 f   c60_Walking01_DDA3D.obj
 0001:002ccfb0       enable_c60_Walking01_DDA3D 00000001802cdfb0 f   c60_Walking01_DDA3D.obj
 0001:002ccfe0       sf_opaque_disable_c60_Walking01_DDA3D 00000001802cdfe0 f   c60_Walking01_DDA3D.obj
 0001:002cd000       disable_c60_Walking01_DDA3D 00000001802ce000 f   c60_Walking01_DDA3D.obj
 0001:002cd030       sf_opaque_gateway_c60_Walking01_DDA3D 00000001802ce030 f   c60_Walking01_DDA3D.obj
 0001:002cd050       sf_gateway_c60_Walking01_DDA3D 00000001802ce050 f   c60_Walking01_DDA3D.obj
 0001:002ce2a0       c60_MARLOSafety            00000001802cf2a0 f   c60_Walking01_DDA3D.obj
 0001:002d0d10       c60_MARLOBasicSafetyLimits3 00000001802d1d10 f   c60_Walking01_DDA3D.obj
 0001:002d2150       c60_f_sf_marshallOut       00000001802d3150 f   c60_Walking01_DDA3D.obj
 0001:002d2200       c60_g_sf_marshallOut       00000001802d3200 f   c60_Walking01_DDA3D.obj
 0001:002d2370       c60_c_sf_marshallIn        00000001802d3370 f   c60_Walking01_DDA3D.obj
 0001:002d2470       c60_e_emlrt_marshallIn     00000001802d3470 f   c60_Walking01_DDA3D.obj
 0001:002d2560       c60_d_sf_marshallIn        00000001802d3560 f   c60_Walking01_DDA3D.obj
 0001:002d2680       c60_f_emlrt_marshallIn     00000001802d3680 f   c60_Walking01_DDA3D.obj
 0001:002d2780       c60_h_sf_marshallOut       00000001802d3780 f   c60_Walking01_DDA3D.obj
 0001:002d29d0       c60_i_sf_marshallOut       00000001802d39d0 f   c60_Walking01_DDA3D.obj
 0001:002d2b60       c60_e_sf_marshallIn        00000001802d3b60 f   c60_Walking01_DDA3D.obj
 0001:002d2c80       c60_g_emlrt_marshallIn     00000001802d3c80 f   c60_Walking01_DDA3D.obj
 0001:002d2d70       c60_f_sf_marshallIn        00000001802d3d70 f   c60_Walking01_DDA3D.obj
 0001:002d2e70       c60_h_emlrt_marshallIn     00000001802d3e70 f   c60_Walking01_DDA3D.obj
 0001:002d2f60       c60_g_sf_marshallIn        00000001802d3f60 f   c60_Walking01_DDA3D.obj
 0001:002d3000       c60_i_emlrt_marshallIn     00000001802d4000 f   c60_Walking01_DDA3D.obj
 0001:002d3090       c60_h_sf_marshallIn        00000001802d4090 f   c60_Walking01_DDA3D.obj
 0001:002d3120       c60_j_emlrt_marshallIn     00000001802d4120 f   c60_Walking01_DDA3D.obj
 0001:002d31b0       c60_j_sf_marshallOut       00000001802d41b0 f   c60_Walking01_DDA3D.obj
 0001:002d3340       c60_eml_switch_helper      00000001802d4340 f   c60_Walking01_DDA3D.obj
 0001:002d3350       c60_eml_scalar_eg          00000001802d4350 f   c60_Walking01_DDA3D.obj
 0001:002d3360       c60_mpower                 00000001802d4360 f   c60_Walking01_DDA3D.obj
 0001:002d33e0       c60_b_mpower               00000001802d43e0 f   c60_Walking01_DDA3D.obj
 0001:002d3460       c60_b_eml_scalar_eg        00000001802d4460 f   c60_Walking01_DDA3D.obj
 0001:002d3470       c60_sum                    00000001802d4470 f   c60_Walking01_DDA3D.obj
 0001:002d35b0       c60_isfinite               00000001802d45b0 f   c60_Walking01_DDA3D.obj
 0001:002d3770       c60_any                    00000001802d4770 f   c60_Walking01_DDA3D.obj
 0001:002d3970       c60_abs                    00000001802d4970 f   c60_Walking01_DDA3D.obj
 0001:002d3b70       c60_eml_error              00000001802d4b70 f   c60_Walking01_DDA3D.obj
 0001:002d3cb0       c60_bsearch                00000001802d4cb0 f   c60_Walking01_DDA3D.obj
 0001:002d4a50       c60_b_any                  00000001802d5a50 f   c60_Walking01_DDA3D.obj
 0001:002d4ad0       c60_check_forloop_overflow_error 00000001802d5ad0 f   c60_Walking01_DDA3D.obj
 0001:002d4d00       c60_b_eml_xgemm            00000001802d5d00 f   c60_Walking01_DDA3D.obj
 0001:002d4de0       sf_opaque_get_sim_state_c60_Walking01_DDA3D 00000001802d5de0 f   c60_Walking01_DDA3D.obj
 0001:002d4e30       get_sim_state_c60_Walking01_DDA3D 00000001802d5e30 f   c60_Walking01_DDA3D.obj
 0001:002d5240       sf_opaque_set_sim_state_c60_Walking01_DDA3D 00000001802d6240 f   c60_Walking01_DDA3D.obj
 0001:002d5290       set_sim_state_c60_Walking01_DDA3D 00000001802d6290 f   c60_Walking01_DDA3D.obj
 0001:002d5480       c60_update_debugger_state_c60_Walking01_DDA3D 00000001802d6480 f   c60_Walking01_DDA3D.obj
 0001:002d5490       c60_emlrt_marshallIn       00000001802d6490 f   c60_Walking01_DDA3D.obj
 0001:002d5500       c60_c_emlrt_marshallIn     00000001802d6500 f   c60_Walking01_DDA3D.obj
 0001:002d5570       c60_l_emlrt_marshallIn     00000001802d6570 f   c60_Walking01_DDA3D.obj
 0001:002d55d0       c60_m_emlrt_marshallIn     00000001802d65d0 f   c60_Walking01_DDA3D.obj
 0001:002d5660       sf_opaque_terminate_c60_Walking01_DDA3D 00000001802d6660 f   c60_Walking01_DDA3D.obj
 0001:002d5700       finalize_c60_Walking01_DDA3D 00000001802d6700 f   c60_Walking01_DDA3D.obj
 0001:002d5710       sf_opaque_init_subchart_simstructs 00000001802d6710 f   c60_Walking01_DDA3D.obj
 0001:002d5730       initSimStructsc60_Walking01_DDA3D 00000001802d6730 f   c60_Walking01_DDA3D.obj
 0001:002d5740       mdlRTW_c60_Walking01_DDA3D 00000001802d6740 f   c60_Walking01_DDA3D.obj
 0001:002d57f0       c92_info_helper            00000001802d67f0 f   c92_Walking01_DDA3D.obj
 0001:002dd210       c92_emlrt_marshallOut      00000001802de210 f   c92_Walking01_DDA3D.obj
 0001:002dd2a0       c92_b_emlrt_marshallOut    00000001802de2a0 f   c92_Walking01_DDA3D.obj
 0001:002ddcf0       mdlProcessParameters_c92_Walking01_DDA3D 00000001802decf0 f   c92_Walking01_DDA3D.obj
 0001:002dddd0       initialize_params_c92_Walking01_DDA3D 00000001802dedd0 f   c92_Walking01_DDA3D.obj
 0001:002ddde0       mdlSetWorkWidths_c92_Walking01_DDA3D 00000001802dede0 f   c92_Walking01_DDA3D.obj
 0001:002de310       sf_get_instance_specialization 00000001802df310 f   c92_Walking01_DDA3D.obj
 0001:002de320       mdlStart_c92_Walking01_DDA3D 00000001802df320 f   c92_Walking01_DDA3D.obj
 0001:002de5a0       init_dsm_address_info      00000001802df5a0 f   c92_Walking01_DDA3D.obj
 0001:002de5b0       init_simulink_io_address   00000001802df5b0 f   c92_Walking01_DDA3D.obj
 0001:002de640       sf_get_sim_state_info_c92_Walking01_DDA3D 00000001802df640 f   c92_Walking01_DDA3D.obj
 0001:002de700       chart_debug_initialization 00000001802df700 f   c92_Walking01_DDA3D.obj
 0001:002df0f0       init_script_number_translation 00000001802e00f0 f   c92_Walking01_DDA3D.obj
 0001:002df110       c92_sf_marshallOut         00000001802e0110 f   c92_Walking01_DDA3D.obj
 0001:002df330       c92_sf_marshallIn          00000001802e0330 f   c92_Walking01_DDA3D.obj
 0001:002df4c0       c92_b_emlrt_marshallIn     00000001802e04c0 f   c92_Walking01_DDA3D.obj
 0001:002df5c0       c92_b_sf_marshallOut       00000001802e05c0 f   c92_Walking01_DDA3D.obj
 0001:002df710       c92_c_sf_marshallOut       00000001802e0710 f   c92_Walking01_DDA3D.obj
 0001:002df7c0       sf_opaque_initialize_c92_Walking01_DDA3D 00000001802e07c0 f   c92_Walking01_DDA3D.obj
 0001:002df800       initialize_c92_Walking01_DDA3D 00000001802e0800 f   c92_Walking01_DDA3D.obj
 0001:002df850       sf_opaque_enable_c92_Walking01_DDA3D 00000001802e0850 f   c92_Walking01_DDA3D.obj
 0001:002df870       enable_c92_Walking01_DDA3D 00000001802e0870 f   c92_Walking01_DDA3D.obj
 0001:002df8a0       sf_opaque_disable_c92_Walking01_DDA3D 00000001802e08a0 f   c92_Walking01_DDA3D.obj
 0001:002df8c0       disable_c92_Walking01_DDA3D 00000001802e08c0 f   c92_Walking01_DDA3D.obj
 0001:002df8f0       sf_opaque_gateway_c92_Walking01_DDA3D 00000001802e08f0 f   c92_Walking01_DDA3D.obj
 0001:002df910       sf_gateway_c92_Walking01_DDA3D 00000001802e0910 f   c92_Walking01_DDA3D.obj
 0001:002dfbf0       c92_chartstep_c92_Walking01_DDA3D 00000001802e0bf0 f   c92_Walking01_DDA3D.obj
 0001:002e0640       c92_b_sf_marshallIn        00000001802e1640 f   c92_Walking01_DDA3D.obj
 0001:002e06e0       c92_c_emlrt_marshallIn     00000001802e16e0 f   c92_Walking01_DDA3D.obj
 0001:002e0770       c92_d_sf_marshallOut       00000001802e1770 f   c92_Walking01_DDA3D.obj
 0001:002e0980       c92_c_sf_marshallIn        00000001802e1980 f   c92_Walking01_DDA3D.obj
 0001:002e0b10       c92_d_emlrt_marshallIn     00000001802e1b10 f   c92_Walking01_DDA3D.obj
 0001:002e0c20       c92_e_sf_marshallOut       00000001802e1c20 f   c92_Walking01_DDA3D.obj
 0001:002e0e10       c92_eml_scalar_eg          00000001802e1e10 f   c92_Walking01_DDA3D.obj
 0001:002e0e20       c92_b_eml_xgemm            00000001802e1e20 f   c92_Walking01_DDA3D.obj
 0001:002e0f70       sf_opaque_get_sim_state_c92_Walking01_DDA3D 00000001802e1f70 f   c92_Walking01_DDA3D.obj
 0001:002e0fc0       get_sim_state_c92_Walking01_DDA3D 00000001802e1fc0 f   c92_Walking01_DDA3D.obj
 0001:002e11b0       sf_opaque_set_sim_state_c92_Walking01_DDA3D 00000001802e21b0 f   c92_Walking01_DDA3D.obj
 0001:002e1200       set_sim_state_c92_Walking01_DDA3D 00000001802e2200 f   c92_Walking01_DDA3D.obj
 0001:002e1360       c92_update_debugger_state_c92_Walking01_DDA3D 00000001802e2360 f   c92_Walking01_DDA3D.obj
 0001:002e1370       c92_emlrt_marshallIn       00000001802e2370 f   c92_Walking01_DDA3D.obj
 0001:002e13e0       c92_f_emlrt_marshallIn     00000001802e23e0 f   c92_Walking01_DDA3D.obj
 0001:002e1440       c92_g_emlrt_marshallIn     00000001802e2440 f   c92_Walking01_DDA3D.obj
 0001:002e14d0       sf_opaque_terminate_c92_Walking01_DDA3D 00000001802e24d0 f   c92_Walking01_DDA3D.obj
 0001:002e1570       finalize_c92_Walking01_DDA3D 00000001802e2570 f   c92_Walking01_DDA3D.obj
 0001:002e1580       sf_opaque_init_subchart_simstructs 00000001802e2580 f   c92_Walking01_DDA3D.obj
 0001:002e15a0       initSimStructsc92_Walking01_DDA3D 00000001802e25a0 f   c92_Walking01_DDA3D.obj
 0001:002e15b0       mdlRTW_c92_Walking01_DDA3D 00000001802e25b0 f   c92_Walking01_DDA3D.obj
 0001:002e1670       c93_info_helper            00000001802e2670 f   c93_Walking01_DDA3D.obj
 0001:002eb2e0       c93_emlrt_marshallOut      00000001802ec2e0 f   c93_Walking01_DDA3D.obj
 0001:002eb370       c93_b_emlrt_marshallOut    00000001802ec370 f   c93_Walking01_DDA3D.obj
 0001:002eb3e0       c93_b_info_helper          00000001802ec3e0 f   c93_Walking01_DDA3D.obj
 0001:002f00d0       mdlProcessParameters_c93_Walking01_DDA3D 00000001802f10d0 f   c93_Walking01_DDA3D.obj
 0001:002f01b0       initialize_params_c93_Walking01_DDA3D 00000001802f11b0 f   c93_Walking01_DDA3D.obj
 0001:002f01c0       mdlSetWorkWidths_c93_Walking01_DDA3D 00000001802f11c0 f   c93_Walking01_DDA3D.obj
 0001:002f06c0       sf_get_instance_specialization 00000001802f16c0 f   c93_Walking01_DDA3D.obj
 0001:002f06d0       mdlStart_c93_Walking01_DDA3D 00000001802f16d0 f   c93_Walking01_DDA3D.obj
 0001:002f0950       init_dsm_address_info      00000001802f1950 f   c93_Walking01_DDA3D.obj
 0001:002f0960       init_simulink_io_address   00000001802f1960 f   c93_Walking01_DDA3D.obj
 0001:002f09d0       sf_get_sim_state_info_c93_Walking01_DDA3D 00000001802f19d0 f   c93_Walking01_DDA3D.obj
 0001:002f0a90       chart_debug_initialization 00000001802f1a90 f   c93_Walking01_DDA3D.obj
 0001:002f1680       init_script_number_translation 00000001802f2680 f   c93_Walking01_DDA3D.obj
 0001:002f16d0       c93_sf_marshallOut         00000001802f26d0 f   c93_Walking01_DDA3D.obj
 0001:002f1920       c93_sf_marshallIn          00000001802f2920 f   c93_Walking01_DDA3D.obj
 0001:002f1a60       c93_b_emlrt_marshallIn     00000001802f2a60 f   c93_Walking01_DDA3D.obj
 0001:002f1b70       c93_b_sf_marshallOut       00000001802f2b70 f   c93_Walking01_DDA3D.obj
 0001:002f1c20       c93_c_sf_marshallOut       00000001802f2c20 f   c93_Walking01_DDA3D.obj
 0001:002f1f40       sf_opaque_initialize_c93_Walking01_DDA3D 00000001802f2f40 f   c93_Walking01_DDA3D.obj
 0001:002f1f80       initialize_c93_Walking01_DDA3D 00000001802f2f80 f   c93_Walking01_DDA3D.obj
 0001:002f1fd0       sf_opaque_enable_c93_Walking01_DDA3D 00000001802f2fd0 f   c93_Walking01_DDA3D.obj
 0001:002f1ff0       enable_c93_Walking01_DDA3D 00000001802f2ff0 f   c93_Walking01_DDA3D.obj
 0001:002f2020       sf_opaque_disable_c93_Walking01_DDA3D 00000001802f3020 f   c93_Walking01_DDA3D.obj
 0001:002f2040       disable_c93_Walking01_DDA3D 00000001802f3040 f   c93_Walking01_DDA3D.obj
 0001:002f2070       sf_opaque_gateway_c93_Walking01_DDA3D 00000001802f3070 f   c93_Walking01_DDA3D.obj
 0001:002f2090       sf_gateway_c93_Walking01_DDA3D 00000001802f3090 f   c93_Walking01_DDA3D.obj
 0001:002f2f20       c93_interpolateRoughGround 00000001802f3f20 f   c93_Walking01_DDA3D.obj
 0001:002f43b0       c93_b_sf_marshallIn        00000001802f53b0 f   c93_Walking01_DDA3D.obj
 0001:002f4450       c93_c_emlrt_marshallIn     00000001802f5450 f   c93_Walking01_DDA3D.obj
 0001:002f44e0       c93_d_sf_marshallOut       00000001802f54e0 f   c93_Walking01_DDA3D.obj
 0001:002f4670       c93_c_sf_marshallIn        00000001802f5670 f   c93_Walking01_DDA3D.obj
 0001:002f4800       c93_d_emlrt_marshallIn     00000001802f5800 f   c93_Walking01_DDA3D.obj
 0001:002f4910       c93_e_sf_marshallOut       00000001802f5910 f   c93_Walking01_DDA3D.obj
 0001:002f4a50       c93_d_sf_marshallIn        00000001802f5a50 f   c93_Walking01_DDA3D.obj
 0001:002f4b20       c93_e_emlrt_marshallIn     00000001802f5b20 f   c93_Walking01_DDA3D.obj
 0001:002f4c00       c93_e_sf_marshallIn        00000001802f5c00 f   c93_Walking01_DDA3D.obj
 0001:002f4d00       c93_f_emlrt_marshallIn     00000001802f5d00 f   c93_Walking01_DDA3D.obj
 0001:002f4e10       c93_eml_sort               00000001802f5e10 f   c93_Walking01_DDA3D.obj
 0001:002f4ec0       c93_eml_sort_idx           00000001802f5ec0 f   c93_Walking01_DDA3D.obj
 0001:002f68c0       c93_eml_switch_helper      00000001802f78c0 f   c93_Walking01_DDA3D.obj
 0001:002f68d0       c93_check_forloop_overflow_error 00000001802f78d0 f   c93_Walking01_DDA3D.obj
 0001:002f6ad0       sf_opaque_get_sim_state_c93_Walking01_DDA3D 00000001802f7ad0 f   c93_Walking01_DDA3D.obj
 0001:002f6b20       get_sim_state_c93_Walking01_DDA3D 00000001802f7b20 f   c93_Walking01_DDA3D.obj
 0001:002f6d20       sf_opaque_set_sim_state_c93_Walking01_DDA3D 00000001802f7d20 f   c93_Walking01_DDA3D.obj
 0001:002f6d70       set_sim_state_c93_Walking01_DDA3D 00000001802f7d70 f   c93_Walking01_DDA3D.obj
 0001:002f6ed0       c93_update_debugger_state_c93_Walking01_DDA3D 00000001802f7ed0 f   c93_Walking01_DDA3D.obj
 0001:002f6ee0       c93_emlrt_marshallIn       00000001802f7ee0 f   c93_Walking01_DDA3D.obj
 0001:002f6f50       c93_h_emlrt_marshallIn     00000001802f7f50 f   c93_Walking01_DDA3D.obj
 0001:002f6fb0       c93_i_emlrt_marshallIn     00000001802f7fb0 f   c93_Walking01_DDA3D.obj
 0001:002f7040       sf_opaque_terminate_c93_Walking01_DDA3D 00000001802f8040 f   c93_Walking01_DDA3D.obj
 0001:002f70e0       finalize_c93_Walking01_DDA3D 00000001802f80e0 f   c93_Walking01_DDA3D.obj
 0001:002f70f0       sf_opaque_init_subchart_simstructs 00000001802f80f0 f   c93_Walking01_DDA3D.obj
 0001:002f7110       initSimStructsc93_Walking01_DDA3D 00000001802f8110 f   c93_Walking01_DDA3D.obj
 0001:002f7120       mdlRTW_c93_Walking01_DDA3D 00000001802f8120 f   c93_Walking01_DDA3D.obj
 0001:002f7f20       getChartInfoFromSimStruct  00000001802f8f20 f   Walking01_DDA3D_sfun_registry.obj
 0001:002f95c0       _ssFatalError              00000001802fa5c0 f   Walking01_DDA3D_sfun_registry.obj
 0001:002fc670       ProcessMexSfunctionCmdLineCall 00000001802fd670 f   Walking01_DDA3D_sfun_registry.obj
 0001:002fc840       sf_debug_api_wrapper       00000001802fd840 f   Walking01_DDA3D_sfun_registry.obj
 0001:002fc890       mdlStart                   00000001802fd890 f   Walking01_DDA3D_sfun_registry.obj
 0001:002fc8c0       mdl_start_processing       00000001802fd8c0 f   Walking01_DDA3D_sfun_registry.obj
 0001:002fc980       mdlTerminate               00000001802fd980 f   Walking01_DDA3D_sfun_registry.obj
 0001:002fc9b0       mdl_terminate_processing   00000001802fd9b0 f   Walking01_DDA3D_sfun_registry.obj
 0001:002fca30       mdlInitializeSampleTimes   00000001802fda30 f   Walking01_DDA3D_sfun_registry.obj
 0001:002fca60       mdlZeroCrossings           00000001802fda60 f   Walking01_DDA3D_sfun_registry.obj
 0001:002fca90       mdl_zeroCrossings_processing 00000001802fda90 f   Walking01_DDA3D_sfun_registry.obj
 0001:002fcad0       mdlDerivatives             00000001802fdad0 f   Walking01_DDA3D_sfun_registry.obj
 0001:002fcb00       mdl_derivatives_processing 00000001802fdb00 f   Walking01_DDA3D_sfun_registry.obj
 0001:002fcb50       mdlInitializeConditions    00000001802fdb50 f   Walking01_DDA3D_sfun_registry.obj
 0001:002fcb80       mdl_initialize_conditions_processing 00000001802fdb80 f   Walking01_DDA3D_sfun_registry.obj
 0001:002fcbd0       mdlEnable                  00000001802fdbd0 f   Walking01_DDA3D_sfun_registry.obj
 0001:002fcc00       mdl_enable_processing      00000001802fdc00 f   Walking01_DDA3D_sfun_registry.obj
 0001:002fcc40       mdlDisable                 00000001802fdc40 f   Walking01_DDA3D_sfun_registry.obj
 0001:002fcc70       mdl_disable_processing     00000001802fdc70 f   Walking01_DDA3D_sfun_registry.obj
 0001:002fccb0       mdlOutputs                 00000001802fdcb0 f   Walking01_DDA3D_sfun_registry.obj
 0001:002fcce0       mdl_outputs_processing     00000001802fdce0 f   Walking01_DDA3D_sfun_registry.obj
 0001:002fcdc0       mdl_outputs_continuous_legacy 00000001802fddc0 f   Walking01_DDA3D_sfun_registry.obj
 0001:002fceb0       mdlGetTimeOfNextVarHit     00000001802fdeb0 f   Walking01_DDA3D_sfun_registry.obj
 0001:002fcf00       _ProcessMexSfunctionCmdLineCall 00000001802fdf00 f   Walking01_DDA3D_sfun_registry.obj
 0001:002fd650       mdlSetWorkWidths           00000001802fe650 f   Walking01_DDA3D_sfun_registry.obj
 0001:002fd680       mdlProcessParameters       00000001802fe680 f   Walking01_DDA3D_sfun_registry.obj
 0001:002fd6b0       mdlInitializeSizes         00000001802fe6b0 f   Walking01_DDA3D_sfun_registry.obj
 0001:002fd6e0       mdlExtModeExec             00000001802fe6e0 f   Walking01_DDA3D_sfun_registry.obj
 0001:002fd710       mdl_ext_mode_exec_processing 00000001802fe710 f   Walking01_DDA3D_sfun_registry.obj
 0001:002fd750       mdlRTW                     00000001802fe750 f   Walking01_DDA3D_sfun_registry.obj
 0001:002fd790       _CreateSimStruct           00000001802fe790 f   Walking01_DDA3D_sfun_registry.obj
 0001:002fd920       _RegNumInputPortsCB        00000001802fe920 f   Walking01_DDA3D_sfun_registry.obj
 0001:002fd9a0       _RegNumOutputPortsCB       00000001802fe9a0 f   Walking01_DDA3D_sfun_registry.obj
 0001:002fe0d0       pre_c_init                 00000001802ff0d0 f   MSVCRT:crtdll.obj
 0001:002fe38c       __DllMainCRTStartup        00000001802ff38c f   MSVCRT:crtdll.obj
 0001:002fe9f0       __DllMainCRTStartup$filt$0 00000001802ff9f0 f   MSVCRT:crtdll.obj
 0001:002fea20       __DllMainCRTStartup$fin$1  00000001802ffa20 f   MSVCRT:crtdll.obj
 0001:002fea3a       _onexit$fin$0              00000001802ffa3a f   MSVCRT:atonexit.obj
 0001:002fea60       _IsNonwritableInCurrentImage$filt$0 00000001802ffa60 f   MSVCRT:pesect.obj
