 DDA2D_OSU3Dv2_cgxe

 Timestamp is 5638211a (Mon Nov 02 21:51:06 2015)

 Preferred load address is 0000000180000000

 Start         Length     Name                   Class
 0001:00000000 0003ba44H .text                   CODE
 0001:0003ba50 00000092H .text$x                 CODE
 0002:00000000 000003b0H .idata$5                DATA
 0002:000003b0 00000008H .CRT$XCA                DATA
 0002:000003b8 00000008H .CRT$XCZ                DATA
 0002:000003c0 00000008H .CRT$XIA                DATA
 0002:000003c8 00000008H .CRT$XIAA               DATA
 0002:000003d0 00000008H .CRT$XIZ                DATA
 0002:000003e0 0000099cH .rdata                  DATA
 0002:00000d80 00000008H .rtc$IAA                DATA
 0002:00000d88 00000008H .rtc$IZZ                DATA
 0002:00000d90 00000008H .rtc$TAA                DATA
 0002:00000d98 00000008H .rtc$TZZ                DATA
 0002:00000da0 00000838H .xdata                  DATA
 0002:000015d8 0000008cH .idata$2                DATA
 0002:00001664 00000014H .idata$3                DATA
 0002:00001678 000003b0H .idata$4                DATA
 0002:00001a28 000008baH .idata$6                DATA
 0002:000022f0 00000058H .edata                  DATA
 0003:00000000 000182fcH .data                   DATA
 0003:00018300 000016c8H .bss                    DATA
 0004:00000000 000009d8H .pdata                  DATA

  Address         Publics by Value              Rva+Base               Lib:Object

 0000:00000000       ___safe_se_handler_count   0000000000000000     <absolute>
 0000:00000000       ___safe_se_handler_table   0000000000000000     <absolute>
 0000:00000000       __ImageBase                0000000180000000     <linker-defined>
 0001:00000000       cgxe_DDA2D_OSU3Dv2_initializer 0000000180001000 f   DDA2D_OSU3Dv2_cgxe.obj
 0001:00000060       cgxe_DDA2D_OSU3Dv2_terminator 0000000180001060 f   DDA2D_OSU3Dv2_cgxe.obj
 0001:000000a0       cgxe_DDA2D_OSU3Dv2_method_dispatcher 00000001800010a0 f   DDA2D_OSU3Dv2_cgxe.obj
 0001:00000120       cgxe_DDA2D_OSU3Dv2_autoInfer_dispatcher 0000000180001120 f   DDA2D_OSU3Dv2_cgxe.obj
 0001:000001b0       method_dispatcher_KVvGQhP9zVmL5NQhzh0cxF 00000001800011b0 f   m_KVvGQhP9zVmL5NQhzh0cxF.obj
 0001:0001da90       autoInfer_dispatcher_KVvGQhP9zVmL5NQhzh0cxF 000000018001ea90 f   m_KVvGQhP9zVmL5NQhzh0cxF.obj
 0001:00035620       cgxe_KVvGQhP9zVmL5NQhzh0cxF_BuildInfoUpdate 0000000180036620 f   m_KVvGQhP9zVmL5NQhzh0cxF.obj
 0001:00035780       _ssSetStateAbsTol          0000000180036780 f   DDA2D_OSU3Dv2_cgxe_registry.obj
 0001:00035860       _ssGetAbsTol               0000000180036860 f   DDA2D_OSU3Dv2_cgxe_registry.obj
 0001:000358d0       _ssSetInputPortMatrixDimensions 00000001800368d0 f   DDA2D_OSU3Dv2_cgxe_registry.obj
 0001:000359e0       _ssSetOutputPortMatrixDimensions 00000001800369e0 f   DDA2D_OSU3Dv2_cgxe_registry.obj
 0001:00035af0       _ssSetInputPortVectorDimension 0000000180036af0 f   DDA2D_OSU3Dv2_cgxe_registry.obj
 0001:00035bc0       _ssSetOutputPortVectorDimension 0000000180036bc0 f   DDA2D_OSU3Dv2_cgxe_registry.obj
 0001:00035c90       ssIsRunTimeParamTunable    0000000180036c90 f   DDA2D_OSU3Dv2_cgxe_registry.obj
 0001:00035d00       ssGetSFuncBlockHandle      0000000180036d00 f   DDA2D_OSU3Dv2_cgxe_registry.obj
 0001:00035d70       _ssGetCurrentInputPortWidth 0000000180036d70 f   DDA2D_OSU3Dv2_cgxe_registry.obj
 0001:00035e90       _ssGetCurrentOutputPortWidth 0000000180036e90 f   DDA2D_OSU3Dv2_cgxe_registry.obj
 0001:00035fb0       _ssGetCallSystemNumFcnCallDestinations 0000000180036fb0 f   DDA2D_OSU3Dv2_cgxe_registry.obj
 0001:00036020       ssWarning                  0000000180037020 f   DDA2D_OSU3Dv2_cgxe_registry.obj
 0001:00036130       ssGetIsZeroCrossControlDisabled 0000000180037130 f   DDA2D_OSU3Dv2_cgxe_registry.obj
 0001:000361a0       ssSetIsInputPortUsedForContZcSignal 00000001800371a0 f   DDA2D_OSU3Dv2_cgxe_registry.obj
 0001:00036210       ssSetZcSignalIsZcElementDisc 0000000180037210 f   DDA2D_OSU3Dv2_cgxe_registry.obj
 0001:000362c0       ssSetZcSignalName          00000001800372c0 f   DDA2D_OSU3Dv2_cgxe_registry.obj
 0001:00036330       ssSetZcSignalWidth         0000000180037330 f   DDA2D_OSU3Dv2_cgxe_registry.obj
 0001:000363a0       ssSetZcSignalZcEventType   00000001800373a0 f   DDA2D_OSU3Dv2_cgxe_registry.obj
 0001:00036410       ssSetZcSignalType          0000000180037410 f   DDA2D_OSU3Dv2_cgxe_registry.obj
 0001:00036480       ssSetZcSignalZcTol         0000000180037480 f   DDA2D_OSU3Dv2_cgxe_registry.obj
 0001:000364f0       ssSetZcSignalNeedsEventNotification 00000001800374f0 f   DDA2D_OSU3Dv2_cgxe_registry.obj
 0001:00036560       ssCreateAndAddZcSignalInfo 0000000180037560 f   DDA2D_OSU3Dv2_cgxe_registry.obj
 0001:000365d0       ssCloneAndAddZcSignalInfo  00000001800375d0 f   DDA2D_OSU3Dv2_cgxe_registry.obj
 0001:00036640       ssGetNumZcSignals          0000000180037640 f   DDA2D_OSU3Dv2_cgxe_registry.obj
 0001:000366b0       ssGetZcSignalVector        00000001800376b0 f   DDA2D_OSU3Dv2_cgxe_registry.obj
 0001:00036720       ssGetZcSignalZcEvents      0000000180037720 f   DDA2D_OSU3Dv2_cgxe_registry.obj
 0001:00036790       ssGetZcSignalName          0000000180037790 f   DDA2D_OSU3Dv2_cgxe_registry.obj
 0001:00036800       ssGetZcSignalWidth         0000000180037800 f   DDA2D_OSU3Dv2_cgxe_registry.obj
 0001:00036870       ssGetZcSignalZcEventType   0000000180037870 f   DDA2D_OSU3Dv2_cgxe_registry.obj
 0001:000368e0       ssGetZcSignalType          00000001800378e0 f   DDA2D_OSU3Dv2_cgxe_registry.obj
 0001:00036950       ssGetZcSignalZcTol         0000000180037950 f   DDA2D_OSU3Dv2_cgxe_registry.obj
 0001:000369d0       ssGetZcSignalNeedsEventNotification 00000001800379d0 f   DDA2D_OSU3Dv2_cgxe_registry.obj
 0001:00036a40       ssGetZcSignalIsZcElementDisc 0000000180037a40 f   DDA2D_OSU3Dv2_cgxe_registry.obj
 0001:00036ae0       ssGetIsInputPortElementContinuous 0000000180037ae0 f   DDA2D_OSU3Dv2_cgxe_registry.obj
 0001:00036b80       _ssGetInputPortSignalPtrsFcn 0000000180037b80 f   DDA2D_OSU3Dv2_cgxe_registry.obj
 0001:00036e40       _ssGetInputPortSignalFcn   0000000180037e40 f   DDA2D_OSU3Dv2_cgxe_registry.obj
 0001:00037060       _ssSetInputPortDirectFeedThroughFcn 0000000180038060 f   DDA2D_OSU3Dv2_cgxe_registry.obj
 0001:000371c0       _ssSetInputPortReusableFcn 00000001800381c0 f   DDA2D_OSU3Dv2_cgxe_registry.obj
 0001:000372b0       _ssSetOutputPortReusableFcn 00000001800382b0 f   DDA2D_OSU3Dv2_cgxe_registry.obj
 0001:00037390       ssGetDTypeIdFromMxArray    0000000180038390 f   DDA2D_OSU3Dv2_cgxe_registry.obj
 0001:000374b0       ssWriteRTWStr              00000001800384b0 f   DDA2D_OSU3Dv2_cgxe_registry.obj
 0001:00037510       ssWriteRTWMxVectParam      0000000180038510 f   DDA2D_OSU3Dv2_cgxe_registry.obj
 0001:00037570       ssWriteRTWMx2dMatParam     0000000180038570 f   DDA2D_OSU3Dv2_cgxe_registry.obj
 0001:000375f0       ssWriteRTWNameValuePair    00000001800385f0 f   DDA2D_OSU3Dv2_cgxe_registry.obj
 0001:00037ae0       ssWriteRTWParameters       0000000180038ae0 f   DDA2D_OSU3Dv2_cgxe_registry.obj
 0001:000380e0       ssWriteRTWParamSettings    00000001800390e0 f   DDA2D_OSU3Dv2_cgxe_registry.obj
 0001:000387b0       ssWriteRTWWorkVect         00000001800397b0 f   DDA2D_OSU3Dv2_cgxe_registry.obj
 0001:00038cb0       mexFunction                0000000180039cb0 f   DDA2D_OSU3Dv2_cgxe_registry.obj
 0001:0003ae86       mxGetString_700            000000018003be86 f   libmx:libmx.dll
 0001:0003ae8c       mxGetData                  000000018003be8c f   libmx:libmx.dll
 0001:0003ae92       mxGetPr                    000000018003be92 f   libmx:libmx.dll
 0001:0003ae98       mxGetLogicals              000000018003be98 f   libmx:libmx.dll
 0001:0003ae9e       mxGetInf                   000000018003be9e f   libmx:libmx.dll
 0001:0003aea4       mxGetNaN                   000000018003bea4 f   libmx:libmx.dll
 0001:0003aeaa       mxSetCell_700              000000018003beaa f   libmx:libmx.dll
 0001:0003aeb0       mxCreateCellMatrix_700     000000018003beb0 f   libmx:libmx.dll
 0001:0003aeb6       mxCreateString             000000018003beb6 f   libmx:libmx.dll
 0001:0003aebc       mxGetClassID               000000018003bebc f   libmx:libmx.dll
 0001:0003aec2       mxIsChar                   000000018003bec2 f   libmx:libmx.dll
 0001:0003aec8       mxCreateDoubleMatrix_700   000000018003bec8 f   libmx:libmx.dll
 0001:0003aece       mxSetField_700             000000018003bece f   libmx:libmx.dll
 0001:0003aed4       mxCreateStructMatrix_700   000000018003bed4 f   libmx:libmx.dll
 0001:0003aeda       mxCreateNumericMatrix_700  000000018003beda f   libmx:libmx.dll
 0001:0003aee0       mxIsNumeric                000000018003bee0 f   libmx:libmx.dll
 0001:0003aee6       mxIsComplex                000000018003bee6 f   libmx:libmx.dll
 0001:0003aeec       mxGetN                     000000018003beec f   libmx:libmx.dll
 0001:0003aef2       mxGetM                     000000018003bef2 f   libmx:libmx.dll
 0001:0003aef8       mxCalloc                   000000018003bef8 f   libmx:libmx.dll
 0001:0003aefe       mexWarnMsgTxt              000000018003befe f   libmex:libmex.dll
 0001:0003af04       mexCallMATLABWithObject    000000018003bf04 f   libmex:libmex.dll
 0001:0003af0a       mexPrintf                  000000018003bf0a f   libmex:libmex.dll
 0001:0003af10       mexUnlock                  000000018003bf10 f   libmex:libmex.dll
 0001:0003af16       mexIsLocked                000000018003bf16 f   libmex:libmex.dll
 0001:0003af1c       mexErrMsgTxt               000000018003bf1c f   libmex:libmex.dll
 0001:0003af22       muDoubleScalarAbs          000000018003bf22 f   libmwmathutil:libmwmathutil.dll
 0001:0003af28       muDoubleScalarMax          000000018003bf28 f   libmwmathutil:libmwmathutil.dll
 0001:0003af2e       muDoubleScalarMin          000000018003bf2e f   libmwmathutil:libmwmathutil.dll
 0001:0003af34       muDoubleScalarSqrt         000000018003bf34 f   libmwmathutil:libmwmathutil.dll
 0001:0003af3a       muDoubleScalarSign         000000018003bf3a f   libmwmathutil:libmwmathutil.dll
 0001:0003af40       muDoubleScalarSin          000000018003bf40 f   libmwmathutil:libmwmathutil.dll
 0001:0003af46       muDoubleScalarCos          000000018003bf46 f   libmwmathutil:libmwmathutil.dll
 0001:0003af4c       muDoubleScalarPower        000000018003bf4c f   libmwmathutil:libmwmathutil.dll
 0001:0003af52       muDoubleScalarAtan         000000018003bf52 f   libmwmathutil:libmwmathutil.dll
 0001:0003af58       muDoubleScalarRound        000000018003bf58 f   libmwmathutil:libmwmathutil.dll
 0001:0003af5e       muDoubleScalarAtan2        000000018003bf5e f   libmwmathutil:libmwmathutil.dll
 0001:0003af64       muDoubleScalarIsNaN        000000018003bf64 f   libmwmathutil:libmwmathutil.dll
 0001:0003af6a       muDoubleScalarIsInf        000000018003bf6a f   libmwmathutil:libmwmathutil.dll
 0001:0003af70       muDoubleScalarLog          000000018003bf70 f   libmwmathutil:libmwmathutil.dll
 0001:0003af76       muDoubleScalarAcos         000000018003bf76 f   libmwmathutil:libmwmathutil.dll
 0001:0003af7c       muDoubleScalarHypot        000000018003bf7c f   libmwmathutil:libmwmathutil.dll
 0001:0003af82       muDoubleScalarAsin         000000018003bf82 f   libmwmathutil:libmwmathutil.dll
 0001:0003af88       emlrtCreateSimulinkRootTLS 000000018003bf88 f   libemlrt:libemlrt.dll
 0001:0003af8e       emlrtDestroyRootTLS        000000018003bf8e f   libemlrt:libemlrt.dll
 0001:0003af94       emlrtRetrieveRunTimeError  000000018003bf94 f   libemlrt:libemlrt.dll
 0001:0003af9a       emlrtSetJmpBuf             000000018003bf9a f   libemlrt:libemlrt.dll
 0001:0003afa0       emlrtSetCell               000000018003bfa0 f   libemlrt:libemlrt.dll
 0001:0003afa6       emlrtDestroyArray          000000018003bfa6 f   libemlrt:libemlrt.dll
 0001:0003afac       emlrtCreateEnumR2012b      000000018003bfac f   libemlrt:libemlrt.dll
 0001:0003afb2       emlrtCreateNumericMatrix   000000018003bfb2 f   libemlrt:libemlrt.dll
 0001:0003afb8       emlrtCheckEnumR2012b       000000018003bfb8 f   libemlrt:libemlrt.dll
 0001:0003afbe       emlrtCreateDoubleScalar    000000018003bfbe f   libemlrt:libemlrt.dll
 0001:0003afc4       emlrtCreateNumericArray    000000018003bfc4 f   libemlrt:libemlrt.dll
 0001:0003afca       emlrtAddField              000000018003bfca f   libemlrt:libemlrt.dll
 0001:0003afd0       emlrtCreateLogicalScalar   000000018003bfd0 f   libemlrt:libemlrt.dll
 0001:0003afd6       emlrtCreateStructMatrix    000000018003bfd6 f   libemlrt:libemlrt.dll
 0001:0003afdc       emlrtAssign                000000018003bfdc f   libemlrt:libemlrt.dll
 0001:0003afe2       emlrtCreateCellMatrix      000000018003bfe2 f   libemlrt:libemlrt.dll
 0001:0003afe8       emlrtAlias                 000000018003bfe8 f   libemlrt:libemlrt.dll
 0001:0003afee       emlrtGetCell               000000018003bfee f   libemlrt:libemlrt.dll
 0001:0003aff4       emlrtGetFieldR2013a        000000018003bff4 f   libemlrt:libemlrt.dll
 0001:0003affa       emlrtCheckStructR2012b     000000018003bffa f   libemlrt:libemlrt.dll
 0001:0003b000       emlrtGetEnumElementR2009a  000000018003c000 f   libemlrt:libemlrt.dll
 0001:0003b006       emlrtCheckBuiltInR2012b    000000018003c006 f   libemlrt:libemlrt.dll
 0001:0003b00c       emlrtInitCharArrayR2013a   000000018003c00c f   libemlrt:libemlrt.dll
 0001:0003b012       emlrtCreateCharArray       000000018003c012 f   libemlrt:libemlrt.dll
 0001:0003b018       emlrtCallMATLABR2012b      000000018003c018 f   libemlrt:libemlrt.dll
 0001:0003b01e       emlrtNameCapturePostProcessR2013b 000000018003c01e f   libemlrt:libemlrt.dll
 0001:0003b024       emlrtCreateString          000000018003c024 f   libemlrt:libemlrt.dll
 0001:0003b02a       emlrtCreateStructArray     000000018003c02a f   libemlrt:libemlrt.dll
 0001:0003b030       cgxe_listen_for_ctrl_c     000000018003c030 f   libcgxert:libcgxert.dll
 0001:0003b038       __GSHandlerCheckCommon     000000018003c038 f   MSVCRT:gshandler.obj
 0001:0003b09c       __GSHandlerCheck           000000018003c09c f   MSVCRT:gshandler.obj
 0001:0003b0ba       strcmp                     000000018003c0ba f   MSVCRT:MSVCR100.dll
 0001:0003b0d0       __security_check_cookie    000000018003c0d0 f   MSVCRT:amdsecgs.obj
 0001:0003b0f0       _setjmp                    000000018003c0f0 f   MSVCRT:MSVCR100.dll
 0001:0003b0f6       calloc                     000000018003c0f6 f   MSVCRT:MSVCR100.dll
 0001:0003b0fc       free                       000000018003c0fc f   MSVCRT:MSVCR100.dll
 0001:0003b102       sprintf                    000000018003c102 f   MSVCRT:MSVCR100.dll
 0001:0003b108       malloc                     000000018003c108 f   MSVCRT:MSVCR100.dll
 0001:0003b10e       strlen                     000000018003c10e f   MSVCRT:MSVCR100.dll
 0001:0003b114       strcat                     000000018003c114 f   MSVCRT:MSVCR100.dll
 0001:0003b11a       memcpy                     000000018003c11a f   MSVCRT:MSVCR100.dll
 0001:0003b120       NtCurrentTeb               000000018003c120 f i MSVCRT:crtdll.obj
 0001:0003b18c       _CRT_INIT                  000000018003c18c f   MSVCRT:crtdll.obj
 0001:0003b524       _DllMainCRTStartup         000000018003c524 f   MSVCRT:crtdll.obj
 0001:0003b564       __report_gsfailure         000000018003c564 f   MSVCRT:gs_report.obj
 0001:0003b6b0       __clean_type_info_names    000000018003c6b0 f   MSVCRT:tncleanup.obj
 0001:0003b6bc       _onexit                    000000018003c6bc f   MSVCRT:atonexit.obj
 0001:0003b76c       atexit                     000000018003c76c f   MSVCRT:atonexit.obj
 0001:0003b784       _RTC_Initialize            000000018003c784 f   MSVCRT:_initsect_.obj
 0001:0003b7bc       _RTC_Terminate             000000018003c7bc f   MSVCRT:_initsect_.obj
 0001:0003b7f4       _malloc_crt                000000018003c7f4 f   MSVCRT:MSVCR100.dll
 0001:0003b800       _ValidateImageBase         000000018003c800 f   MSVCRT:pesect.obj
 0001:0003b830       _FindPESection             000000018003c830 f   MSVCRT:pesect.obj
 0001:0003b880       _IsNonwritableInCurrentImage 000000018003c880 f   MSVCRT:pesect.obj
 0001:0003b8c2       _initterm                  000000018003c8c2 f   MSVCRT:MSVCR100.dll
 0001:0003b8c8       _initterm_e                000000018003c8c8 f   MSVCRT:MSVCR100.dll
 0001:0003b8ce       _encoded_null              000000018003c8ce f   MSVCRT:MSVCR100.dll
 0001:0003b8d4       _amsg_exit                 000000018003c8d4 f   MSVCRT:MSVCR100.dll
 0001:0003b8da       __C_specific_handler       000000018003c8da f   MSVCRT:MSVCR100.dll
 0001:0003b8e0       __CppXcptFilter            000000018003c8e0 f   MSVCRT:MSVCR100.dll
 0001:0003b8e8       DllMain                    000000018003c8e8 f   MSVCRT:dllmain.obj
 0001:0003b90c       __security_init_cookie     000000018003c90c f   MSVCRT:gs_support.obj
 0001:0003b9c0       __crt_debugger_hook        000000018003c9c0 f   MSVCRT:MSVCR100.dll
 0001:0003b9c6       __clean_type_info_names_internal 000000018003c9c6 f   MSVCRT:MSVCR100.dll
 0001:0003b9cc       _unlock                    000000018003c9cc f   MSVCRT:MSVCR100.dll
 0001:0003b9d2       __dllonexit                000000018003c9d2 f   MSVCRT:MSVCR100.dll
 0001:0003b9d8       _lock                      000000018003c9d8 f   MSVCRT:MSVCR100.dll
 0001:0003b9de       EncodePointer              000000018003c9de f   kernel32:KERNEL32.dll
 0001:0003b9e4       DecodePointer              000000018003c9e4 f   kernel32:KERNEL32.dll
 0001:0003b9ea       Sleep                      000000018003c9ea f   kernel32:KERNEL32.dll
 0001:0003b9f0       TerminateProcess           000000018003c9f0 f   kernel32:KERNEL32.dll
 0001:0003b9f6       GetCurrentProcess          000000018003c9f6 f   kernel32:KERNEL32.dll
 0001:0003b9fc       UnhandledExceptionFilter   000000018003c9fc f   kernel32:KERNEL32.dll
 0001:0003ba02       SetUnhandledExceptionFilter 000000018003ca02 f   kernel32:KERNEL32.dll
 0001:0003ba08       IsDebuggerPresent          000000018003ca08 f   kernel32:KERNEL32.dll
 0001:0003ba0e       RtlVirtualUnwind           000000018003ca0e f   kernel32:KERNEL32.dll
 0001:0003ba14       RtlLookupFunctionEntry     000000018003ca14 f   kernel32:KERNEL32.dll
 0001:0003ba1a       RtlCaptureContext          000000018003ca1a f   kernel32:KERNEL32.dll
 0001:0003ba20       DisableThreadLibraryCalls  000000018003ca20 f   kernel32:KERNEL32.dll
 0001:0003ba26       QueryPerformanceCounter    000000018003ca26 f   kernel32:KERNEL32.dll
 0001:0003ba2c       GetTickCount               000000018003ca2c f   kernel32:KERNEL32.dll
 0001:0003ba32       GetCurrentThreadId         000000018003ca32 f   kernel32:KERNEL32.dll
 0001:0003ba38       GetCurrentProcessId        000000018003ca38 f   kernel32:KERNEL32.dll
 0001:0003ba3e       GetSystemTimeAsFileTime    000000018003ca3e f   kernel32:KERNEL32.dll
 0002:00000000       __imp_GetSystemTimeAsFileTime 000000018003d000     kernel32:KERNEL32.dll
 0002:00000008       __imp_GetCurrentProcessId  000000018003d008     kernel32:KERNEL32.dll
 0002:00000010       __imp_GetCurrentThreadId   000000018003d010     kernel32:KERNEL32.dll
 0002:00000018       __imp_GetTickCount         000000018003d018     kernel32:KERNEL32.dll
 0002:00000020       __imp_QueryPerformanceCounter 000000018003d020     kernel32:KERNEL32.dll
 0002:00000028       __imp_DisableThreadLibraryCalls 000000018003d028     kernel32:KERNEL32.dll
 0002:00000030       __imp_RtlCaptureContext    000000018003d030     kernel32:KERNEL32.dll
 0002:00000038       __imp_RtlLookupFunctionEntry 000000018003d038     kernel32:KERNEL32.dll
 0002:00000040       __imp_RtlVirtualUnwind     000000018003d040     kernel32:KERNEL32.dll
 0002:00000048       __imp_IsDebuggerPresent    000000018003d048     kernel32:KERNEL32.dll
 0002:00000050       __imp_SetUnhandledExceptionFilter 000000018003d050     kernel32:KERNEL32.dll
 0002:00000058       __imp_UnhandledExceptionFilter 000000018003d058     kernel32:KERNEL32.dll
 0002:00000060       __imp_GetCurrentProcess    000000018003d060     kernel32:KERNEL32.dll
 0002:00000068       __imp_TerminateProcess     000000018003d068     kernel32:KERNEL32.dll
 0002:00000070       __imp_Sleep                000000018003d070     kernel32:KERNEL32.dll
 0002:00000078       __imp_DecodePointer        000000018003d078     kernel32:KERNEL32.dll
 0002:00000080       __imp_EncodePointer        000000018003d080     kernel32:KERNEL32.dll
 0002:00000088       \177KERNEL32_NULL_THUNK_DATA 000000018003d088     kernel32:KERNEL32.dll
 0002:00000090       __imp__onexit              000000018003d090     MSVCRT:MSVCR100.dll
 0002:00000098       __imp__lock                000000018003d098     MSVCRT:MSVCR100.dll
 0002:000000a0       __imp___dllonexit          000000018003d0a0     MSVCRT:MSVCR100.dll
 0002:000000a8       __imp__unlock              000000018003d0a8     MSVCRT:MSVCR100.dll
 0002:000000b0       __imp___clean_type_info_names_internal 000000018003d0b0     MSVCRT:MSVCR100.dll
 0002:000000b8       __imp___crt_debugger_hook  000000018003d0b8     MSVCRT:MSVCR100.dll
 0002:000000c0       __imp___CppXcptFilter      000000018003d0c0     MSVCRT:MSVCR100.dll
 0002:000000c8       __imp___C_specific_handler 000000018003d0c8     MSVCRT:MSVCR100.dll
 0002:000000d0       __imp__amsg_exit           000000018003d0d0     MSVCRT:MSVCR100.dll
 0002:000000d8       __imp__encoded_null        000000018003d0d8     MSVCRT:MSVCR100.dll
 0002:000000e0       __imp__initterm_e          000000018003d0e0     MSVCRT:MSVCR100.dll
 0002:000000e8       __imp__initterm            000000018003d0e8     MSVCRT:MSVCR100.dll
 0002:000000f0       __imp__malloc_crt          000000018003d0f0     MSVCRT:MSVCR100.dll
 0002:000000f8       __imp_memcpy               000000018003d0f8     MSVCRT:MSVCR100.dll
 0002:00000100       __imp_strcat               000000018003d100     MSVCRT:MSVCR100.dll
 0002:00000108       __imp_strlen               000000018003d108     MSVCRT:MSVCR100.dll
 0002:00000110       __imp_malloc               000000018003d110     MSVCRT:MSVCR100.dll
 0002:00000118       __imp_sprintf              000000018003d118     MSVCRT:MSVCR100.dll
 0002:00000120       __imp_free                 000000018003d120     MSVCRT:MSVCR100.dll
 0002:00000128       __imp_calloc               000000018003d128     MSVCRT:MSVCR100.dll
 0002:00000130       __imp__setjmp              000000018003d130     MSVCRT:MSVCR100.dll
 0002:00000138       __imp_strcmp               000000018003d138     MSVCRT:MSVCR100.dll
 0002:00000140       \177MSVCR100_NULL_THUNK_DATA 000000018003d140     MSVCRT:MSVCR100.dll
 0002:00000148       __imp_cgxe_listen_for_ctrl_c 000000018003d148     libcgxert:libcgxert.dll
 0002:00000150       \177libcgxert_NULL_THUNK_DATA 000000018003d150     libcgxert:libcgxert.dll
 0002:00000158       __imp_emlrtCreateStructArray 000000018003d158     libemlrt:libemlrt.dll
 0002:00000160       __imp_emlrtCreateString    000000018003d160     libemlrt:libemlrt.dll
 0002:00000168       __imp_emlrtCreateSimulinkRootTLS 000000018003d168     libemlrt:libemlrt.dll
 0002:00000170       __imp_emlrtDestroyRootTLS  000000018003d170     libemlrt:libemlrt.dll
 0002:00000178       __imp_emlrtRetrieveRunTimeError 000000018003d178     libemlrt:libemlrt.dll
 0002:00000180       __imp_emlrtSetJmpBuf       000000018003d180     libemlrt:libemlrt.dll
 0002:00000188       __imp_emlrtSetCell         000000018003d188     libemlrt:libemlrt.dll
 0002:00000190       __imp_emlrtDestroyArray    000000018003d190     libemlrt:libemlrt.dll
 0002:00000198       __imp_emlrtCreateEnumR2012b 000000018003d198     libemlrt:libemlrt.dll
 0002:000001a0       __imp_emlrtCreateNumericMatrix 000000018003d1a0     libemlrt:libemlrt.dll
 0002:000001a8       __imp_emlrtCheckEnumR2012b 000000018003d1a8     libemlrt:libemlrt.dll
 0002:000001b0       __imp_emlrtCreateDoubleScalar 000000018003d1b0     libemlrt:libemlrt.dll
 0002:000001b8       __imp_emlrtCreateNumericArray 000000018003d1b8     libemlrt:libemlrt.dll
 0002:000001c0       __imp_emlrtAddField        000000018003d1c0     libemlrt:libemlrt.dll
 0002:000001c8       __imp_emlrtCreateLogicalScalar 000000018003d1c8     libemlrt:libemlrt.dll
 0002:000001d0       __imp_emlrtCreateStructMatrix 000000018003d1d0     libemlrt:libemlrt.dll
 0002:000001d8       __imp_emlrtAssign          000000018003d1d8     libemlrt:libemlrt.dll
 0002:000001e0       __imp_emlrtCreateCellMatrix 000000018003d1e0     libemlrt:libemlrt.dll
 0002:000001e8       __imp_emlrtAlias           000000018003d1e8     libemlrt:libemlrt.dll
 0002:000001f0       __imp_emlrtGetCell         000000018003d1f0     libemlrt:libemlrt.dll
 0002:000001f8       __imp_emlrtGetFieldR2013a  000000018003d1f8     libemlrt:libemlrt.dll
 0002:00000200       __imp_emlrtCheckStructR2012b 000000018003d200     libemlrt:libemlrt.dll
 0002:00000208       __imp_emlrtGetEnumElementR2009a 000000018003d208     libemlrt:libemlrt.dll
 0002:00000210       __imp_emlrtCheckBuiltInR2012b 000000018003d210     libemlrt:libemlrt.dll
 0002:00000218       __imp_emlrtInitCharArrayR2013a 000000018003d218     libemlrt:libemlrt.dll
 0002:00000220       __imp_emlrtCreateCharArray 000000018003d220     libemlrt:libemlrt.dll
 0002:00000228       __imp_emlrtCallMATLABR2012b 000000018003d228     libemlrt:libemlrt.dll
 0002:00000230       __imp_emlrtNameCapturePostProcessR2013b 000000018003d230     libemlrt:libemlrt.dll
 0002:00000238       \177libemlrt_NULL_THUNK_DATA 000000018003d238     libemlrt:libemlrt.dll
 0002:00000240       __imp_mexCallMATLABWithObject 000000018003d240     libmex:libmex.dll
 0002:00000248       __imp_mexPrintf            000000018003d248     libmex:libmex.dll
 0002:00000250       __imp_mexUnlock            000000018003d250     libmex:libmex.dll
 0002:00000258       __imp_mexIsLocked          000000018003d258     libmex:libmex.dll
 0002:00000260       __imp_mexErrMsgTxt         000000018003d260     libmex:libmex.dll
 0002:00000268       __imp_mexWarnMsgTxt        000000018003d268     libmex:libmex.dll
 0002:00000270       \177libmex_NULL_THUNK_DATA 000000018003d270     libmex:libmex.dll
 0002:00000278       __imp_muDoubleScalarAtan2  000000018003d278     libmwmathutil:libmwmathutil.dll
 0002:00000280       __imp_muDoubleScalarRound  000000018003d280     libmwmathutil:libmwmathutil.dll
 0002:00000288       __imp_muDoubleScalarAtan   000000018003d288     libmwmathutil:libmwmathutil.dll
 0002:00000290       __imp_muDoubleScalarPower  000000018003d290     libmwmathutil:libmwmathutil.dll
 0002:00000298       __imp_muDoubleScalarCos    000000018003d298     libmwmathutil:libmwmathutil.dll
 0002:000002a0       __imp_muDoubleScalarIsNaN  000000018003d2a0     libmwmathutil:libmwmathutil.dll
 0002:000002a8       __imp_muDoubleScalarSign   000000018003d2a8     libmwmathutil:libmwmathutil.dll
 0002:000002b0       __imp_muDoubleScalarSqrt   000000018003d2b0     libmwmathutil:libmwmathutil.dll
 0002:000002b8       __imp_muDoubleScalarMin    000000018003d2b8     libmwmathutil:libmwmathutil.dll
 0002:000002c0       __imp_muDoubleScalarMax    000000018003d2c0     libmwmathutil:libmwmathutil.dll
 0002:000002c8       __imp_muDoubleScalarAbs    000000018003d2c8     libmwmathutil:libmwmathutil.dll
 0002:000002d0       __imp_muDoubleScalarIsInf  000000018003d2d0     libmwmathutil:libmwmathutil.dll
 0002:000002d8       __imp_muDoubleScalarLog    000000018003d2d8     libmwmathutil:libmwmathutil.dll
 0002:000002e0       __imp_muDoubleScalarAcos   000000018003d2e0     libmwmathutil:libmwmathutil.dll
 0002:000002e8       __imp_muDoubleScalarHypot  000000018003d2e8     libmwmathutil:libmwmathutil.dll
 0002:000002f0       __imp_muDoubleScalarAsin   000000018003d2f0     libmwmathutil:libmwmathutil.dll
 0002:000002f8       __imp_muDoubleScalarSin    000000018003d2f8     libmwmathutil:libmwmathutil.dll
 0002:00000300       \177libmwmathutil_NULL_THUNK_DATA 000000018003d300     libmwmathutil:libmwmathutil.dll
 0002:00000308       __imp_mxCalloc             000000018003d308     libmx:libmx.dll
 0002:00000310       __imp_mxGetM               000000018003d310     libmx:libmx.dll
 0002:00000318       __imp_mxGetN               000000018003d318     libmx:libmx.dll
 0002:00000320       __imp_mxIsComplex          000000018003d320     libmx:libmx.dll
 0002:00000328       __imp_mxIsNumeric          000000018003d328     libmx:libmx.dll
 0002:00000330       __imp_mxCreateNumericMatrix_700 000000018003d330     libmx:libmx.dll
 0002:00000338       __imp_mxCreateStructMatrix_700 000000018003d338     libmx:libmx.dll
 0002:00000340       __imp_mxSetField_700       000000018003d340     libmx:libmx.dll
 0002:00000348       __imp_mxCreateDoubleMatrix_700 000000018003d348     libmx:libmx.dll
 0002:00000350       __imp_mxIsChar             000000018003d350     libmx:libmx.dll
 0002:00000358       __imp_mxGetClassID         000000018003d358     libmx:libmx.dll
 0002:00000360       __imp_mxCreateString       000000018003d360     libmx:libmx.dll
 0002:00000368       __imp_mxCreateCellMatrix_700 000000018003d368     libmx:libmx.dll
 0002:00000370       __imp_mxSetCell_700        000000018003d370     libmx:libmx.dll
 0002:00000378       __imp_mxGetNaN             000000018003d378     libmx:libmx.dll
 0002:00000380       __imp_mxGetInf             000000018003d380     libmx:libmx.dll
 0002:00000388       __imp_mxGetLogicals        000000018003d388     libmx:libmx.dll
 0002:00000390       __imp_mxGetPr              000000018003d390     libmx:libmx.dll
 0002:00000398       __imp_mxGetData            000000018003d398     libmx:libmx.dll
 0002:000003a0       __imp_mxGetString_700      000000018003d3a0     libmx:libmx.dll
 0002:000003a8       \177libmx_NULL_THUNK_DATA  000000018003d3a8     libmx:libmx.dll
 0002:000003b0       __xc_a                     000000018003d3b0     MSVCRT:cinitexe.obj
 0002:000003b8       __xc_z                     000000018003d3b8     MSVCRT:cinitexe.obj
 0002:000003c0       __xi_a                     000000018003d3c0     MSVCRT:cinitexe.obj
 0002:000003d0       __xi_z                     000000018003d3d0     MSVCRT:cinitexe.obj
 0002:000004d0       __real@3fcab6ae7d566cf4    000000018003d4d0     m_KVvGQhP9zVmL5NQhzh0cxF.obj
 0002:000004d8       __real@bff0000000000000    000000018003d4d8     m_KVvGQhP9zVmL5NQhzh0cxF.obj
 0002:000004e0       __real@3fe0000000000000    000000018003d4e0     m_KVvGQhP9zVmL5NQhzh0cxF.obj
 0002:000004e8       __real@3f50624dd2f1a9fc    000000018003d4e8     m_KVvGQhP9zVmL5NQhzh0cxF.obj
 0002:000004f0       __real@4000000000000000    000000018003d4f0     m_KVvGQhP9zVmL5NQhzh0cxF.obj
 0002:000004f8       __real@3fb999999999999a    000000018003d4f8     m_KVvGQhP9zVmL5NQhzh0cxF.obj
 0002:00000500       __real@4049000000000000    000000018003d500     m_KVvGQhP9zVmL5NQhzh0cxF.obj
 0002:00000508       __real@4062c00000000000    000000018003d508     m_KVvGQhP9zVmL5NQhzh0cxF.obj
 0002:00000510       __real@3f40624dd2f1a9fc    000000018003d510     m_KVvGQhP9zVmL5NQhzh0cxF.obj
 0002:00000518       __real@3ff0000000000000    000000018003d518     m_KVvGQhP9zVmL5NQhzh0cxF.obj
 0002:00000520       __real@0000000000000000    000000018003d520     m_KVvGQhP9zVmL5NQhzh0cxF.obj
 0002:00000530       __mask@@NegDouble@         000000018003d530     m_KVvGQhP9zVmL5NQhzh0cxF.obj
 0002:00000540       __real@4024000000000000    000000018003d540     m_KVvGQhP9zVmL5NQhzh0cxF.obj
 0002:00000548       __real@3fe6666666666666    000000018003d548     m_KVvGQhP9zVmL5NQhzh0cxF.obj
 0002:00000550       __real@4069000000000000    000000018003d550     m_KVvGQhP9zVmL5NQhzh0cxF.obj
 0002:00000558       __real@4064000000000000    000000018003d558     m_KVvGQhP9zVmL5NQhzh0cxF.obj
 0002:00000560       __real@402e000000000000    000000018003d560     m_KVvGQhP9zVmL5NQhzh0cxF.obj
 0002:00000568       __real@4066800000000000    000000018003d568     m_KVvGQhP9zVmL5NQhzh0cxF.obj
 0002:00000570       __real@4014000000000000    000000018003d570     m_KVvGQhP9zVmL5NQhzh0cxF.obj
 0002:00000578       __real@401921fb54442d18    000000018003d578     m_KVvGQhP9zVmL5NQhzh0cxF.obj
 0002:00000580       __real@bfa1df46a2529d39    000000018003d580     m_KVvGQhP9zVmL5NQhzh0cxF.obj
 0002:00000588       __real@3fa1df46a2529d39    000000018003d588     m_KVvGQhP9zVmL5NQhzh0cxF.obj
 0002:00000590       __real@403ab33333333333    000000018003d590     m_KVvGQhP9zVmL5NQhzh0cxF.obj
 0002:00000598       __real@40658228240b7803    000000018003d598     m_KVvGQhP9zVmL5NQhzh0cxF.obj
 0002:000005a0       __real@400e28c731eb6950    000000018003d5a0     m_KVvGQhP9zVmL5NQhzh0cxF.obj
 0002:000005a8       __real@40041b2f769cf0e0    000000018003d5a8     m_KVvGQhP9zVmL5NQhzh0cxF.obj
 0002:000005b0       __real@400ba5614317cb35    000000018003d5b0     m_KVvGQhP9zVmL5NQhzh0cxF.obj
 0002:000005b8       __real@40069e9565708efc    000000018003d5b8     m_KVvGQhP9zVmL5NQhzh0cxF.obj
 0002:000005c0       __real@bfd0c152382d7365    000000018003d5c0     m_KVvGQhP9zVmL5NQhzh0cxF.obj
 0002:000005c8       __real@3fc1df46a2529d39    000000018003d5c8     m_KVvGQhP9zVmL5NQhzh0cxF.obj
 0002:000005d0       __real@3fd0c152382d7365    000000018003d5d0     m_KVvGQhP9zVmL5NQhzh0cxF.obj
 0002:000005d8       __real@400921fb54442d18    000000018003d5d8     m_KVvGQhP9zVmL5NQhzh0cxF.obj
 0002:000005e0       __real@bfe0000000000000    000000018003d5e0     m_KVvGQhP9zVmL5NQhzh0cxF.obj
 0002:000005e8       __real@bf947ae147ae147b    000000018003d5e8     m_KVvGQhP9zVmL5NQhzh0cxF.obj
 0002:000005f0       __real@3f947ae147ae147b    000000018003d5f0     m_KVvGQhP9zVmL5NQhzh0cxF.obj
 0002:000005f8       __real@3f60624dd2f1a9fc    000000018003d5f8     m_KVvGQhP9zVmL5NQhzh0cxF.obj
 0002:00000600       __real@40239eb851eb851f    000000018003d600     m_KVvGQhP9zVmL5NQhzh0cxF.obj
 0002:00000608       __real@404e9eb851eb851f    000000018003d608     m_KVvGQhP9zVmL5NQhzh0cxF.obj
 0002:00000610       __real@3ff0cccccccccccd    000000018003d610     m_KVvGQhP9zVmL5NQhzh0cxF.obj
 0002:00000618       __real@3feeb851eb851eb8    000000018003d618     m_KVvGQhP9zVmL5NQhzh0cxF.obj
 0002:00000620       __real@3fd6666666666666    000000018003d620     m_KVvGQhP9zVmL5NQhzh0cxF.obj
 0002:00000628       __real@403e000000000000    000000018003d628     m_KVvGQhP9zVmL5NQhzh0cxF.obj
 0002:00000630       __real@3fd999999999999a    000000018003d630     m_KVvGQhP9zVmL5NQhzh0cxF.obj
 0002:00000638       __real@3fe999999999999a    000000018003d638     m_KVvGQhP9zVmL5NQhzh0cxF.obj
 0002:00000640       __real@3ff921fb54442d18    000000018003d640     m_KVvGQhP9zVmL5NQhzh0cxF.obj
 0002:00000648       __real@40c3880000000000    000000018003d648     m_KVvGQhP9zVmL5NQhzh0cxF.obj
 0002:00000650       __real@4010000000000000    000000018003d650     m_KVvGQhP9zVmL5NQhzh0cxF.obj
 0002:00000658       __real@40d1bcb99999999a    000000018003d658     m_KVvGQhP9zVmL5NQhzh0cxF.obj
 0002:00000660       __real@bfc76fd21ff2e48f    000000018003d660     m_KVvGQhP9zVmL5NQhzh0cxF.obj
 0002:00000668       __real@3fc76fd21ff2e48f    000000018003d668     m_KVvGQhP9zVmL5NQhzh0cxF.obj
 0002:00000670       __real@3f505e1d27a3ee9d    000000018003d670     m_KVvGQhP9zVmL5NQhzh0cxF.obj
 0002:00000678       __real@3f30614174a4911d    000000018003d678     m_KVvGQhP9zVmL5NQhzh0cxF.obj
 0002:00000680       __real@3fa999999999999a    000000018003d680     m_KVvGQhP9zVmL5NQhzh0cxF.obj
 0002:00000688       __real@3ff8000000000000    000000018003d688     m_KVvGQhP9zVmL5NQhzh0cxF.obj
 0002:00000690       __real@3fc999999999999a    000000018003d690     m_KVvGQhP9zVmL5NQhzh0cxF.obj
 0002:00000698       __real@3fe8000000000000    000000018003d698     m_KVvGQhP9zVmL5NQhzh0cxF.obj
 0002:000006a0       __real@bfd999999999999a    000000018003d6a0     m_KVvGQhP9zVmL5NQhzh0cxF.obj
 0002:000006a8       __real@bfe3333333333333    000000018003d6a8     m_KVvGQhP9zVmL5NQhzh0cxF.obj
 0002:000006b0       __real@3fe3333333333333    000000018003d6b0     m_KVvGQhP9zVmL5NQhzh0cxF.obj
 0002:000006b8       __real@c010000000000000    000000018003d6b8     m_KVvGQhP9zVmL5NQhzh0cxF.obj
 0002:000006c0       __real@4008000000000000    000000018003d6c0     m_KVvGQhP9zVmL5NQhzh0cxF.obj
 0002:000006c8       __real@3fe45f306dc9c883    000000018003d6c8     m_KVvGQhP9zVmL5NQhzh0cxF.obj
 0002:000006d0       __real@bfe0624dd2f1a9fd    000000018003d6d0     m_KVvGQhP9zVmL5NQhzh0cxF.obj
 0002:000006d8       __real@3fe47ae147ae147c    000000018003d6d8     m_KVvGQhP9zVmL5NQhzh0cxF.obj
 0002:000006e0       __real@bfe999999999999a    000000018003d6e0     m_KVvGQhP9zVmL5NQhzh0cxF.obj
 0002:000006e8       __real@4340000000000000    000000018003d6e8     m_KVvGQhP9zVmL5NQhzh0cxF.obj
 0002:000006f0       __real@4018000000000000    000000018003d6f0     m_KVvGQhP9zVmL5NQhzh0cxF.obj
 0002:000006f8       __real@4004000000000000    000000018003d6f8     m_KVvGQhP9zVmL5NQhzh0cxF.obj
 0002:00000700       __real@3cb0000000000000    000000018003d700     m_KVvGQhP9zVmL5NQhzh0cxF.obj
 0002:00000708       __real@4330000000000000    000000018003d708     m_KVvGQhP9zVmL5NQhzh0cxF.obj
 0002:00000710       __real@3fe62e42fefa39ef    000000018003d710     m_KVvGQhP9zVmL5NQhzh0cxF.obj
 0002:00000718       __real@41b0000000000000    000000018003d718     m_KVvGQhP9zVmL5NQhzh0cxF.obj
 0002:00000720       __real@3ff6a09e667f3bcd    000000018003d720     m_KVvGQhP9zVmL5NQhzh0cxF.obj
 0002:00000728       __real@7fcfffffffffffff    000000018003d728     m_KVvGQhP9zVmL5NQhzh0cxF.obj
 0002:00000730       __real@409b400000000000    000000018003d730     m_KVvGQhP9zVmL5NQhzh0cxF.obj
 0002:00000738       __real@4020000000000000    000000018003d738     m_KVvGQhP9zVmL5NQhzh0cxF.obj
 0002:00000740       DYNAMIC_DIMENSION_DEF      000000018003d740     DDA2D_OSU3Dv2_cgxe_registry.obj
 0002:00000760       _ssBadLevel2InputAccessMsg 000000018003d760     DDA2D_OSU3Dv2_cgxe_registry.obj
 0002:000008f0       _ssBadLevel2DirectFeedMsg  000000018003d8f0     DDA2D_OSU3Dv2_cgxe_registry.obj
 0002:00000a30       _ssBadLevel2DirectFeedSolutionMsg 000000018003da30     DDA2D_OSU3Dv2_cgxe_registry.obj
 0002:00000aa0       _ssBadLevel2ZeroDirectFeedMsg 000000018003daa0     DDA2D_OSU3Dv2_cgxe_registry.obj
 0002:00000be0       _ssBadLevel2ZeroDirectFeedMsg2 000000018003dbe0     DDA2D_OSU3Dv2_cgxe_registry.obj
 0002:00000cc8       __real@41d8f4e047000000    000000018003dcc8     DDA2D_OSU3Dv2_cgxe_registry.obj
 0002:00000cd0       __real@41e8efb6d2c00000    000000018003dcd0     DDA2D_OSU3Dv2_cgxe_registry.obj
 0002:00000cd8       __real@41d05bf1b6c00000    000000018003dcd8     DDA2D_OSU3Dv2_cgxe_registry.obj
 0002:00000ce0       __real@41c58574a7000000    000000018003dce0     DDA2D_OSU3Dv2_cgxe_registry.obj
 0002:00000ce8       __real@41e6a814a6e00000    000000018003dce8     DDA2D_OSU3Dv2_cgxe_registry.obj
 0002:00000cf0       __real@41d033afe5000000    000000018003dcf0     DDA2D_OSU3Dv2_cgxe_registry.obj
 0002:00000cf8       __real@41e873b38c400000    000000018003dcf8     DDA2D_OSU3Dv2_cgxe_registry.obj
 0002:00000d00       __real@41e039d7af400000    000000018003dd00     DDA2D_OSU3Dv2_cgxe_registry.obj
 0002:00000d08       __real@41e165caaf800000    000000018003dd08     DDA2D_OSU3Dv2_cgxe_registry.obj
 0002:00000d10       __real@41ee0115cd000000    000000018003dd10     DDA2D_OSU3Dv2_cgxe_registry.obj
 0002:00000d18       __real@41ed5cee82000000    000000018003dd18     DDA2D_OSU3Dv2_cgxe_registry.obj
 0002:00000d20       __real@41a69b911e000000    000000018003dd20     DDA2D_OSU3Dv2_cgxe_registry.obj
 0002:00000d28       __real@41af8fc3fe000000    000000018003dd28     DDA2D_OSU3Dv2_cgxe_registry.obj
 0002:00000d30       __real@41d5b11089800000    000000018003dd30     DDA2D_OSU3Dv2_cgxe_registry.obj
 0002:00000d38       __real@41e5d81eb6c00000    000000018003dd38     DDA2D_OSU3Dv2_cgxe_registry.obj
 0002:00000d40       __real@41c515e658800000    000000018003dd40     DDA2D_OSU3Dv2_cgxe_registry.obj
 0002:00000d48       __real@41602cbca0000000    000000018003dd48     DDA2D_OSU3Dv2_cgxe_registry.obj
 0002:00000d50       _pDefaultRawDllMain        000000018003dd50     MSVCRT:crtdll.obj
 0002:00000d50       _pRawDllMain               000000018003dd50     MSVCRT:crtdll.obj
 0002:00000d68       ?ProcessDetach@NativeDll@<CrtImplementationDetails>@@0IB 000000018003dd68     MSVCRT:tncleanup.obj
 0002:00000d6c       ?ProcessAttach@NativeDll@<CrtImplementationDetails>@@0IB 000000018003dd6c     MSVCRT:tncleanup.obj
 0002:00000d70       ?ThreadAttach@NativeDll@<CrtImplementationDetails>@@0IB 000000018003dd70     MSVCRT:tncleanup.obj
 0002:00000d74       ?ThreadDetach@NativeDll@<CrtImplementationDetails>@@0IB 000000018003dd74     MSVCRT:tncleanup.obj
 0002:00000d78       ?ProcessVerifier@NativeDll@<CrtImplementationDetails>@@0IB 000000018003dd78     MSVCRT:tncleanup.obj
 0002:00000d80       __rtc_iaa                  000000018003dd80     MSVCRT:_initsect_.obj
 0002:00000d88       __rtc_izz                  000000018003dd88     MSVCRT:_initsect_.obj
 0002:00000d90       __rtc_taa                  000000018003dd90     MSVCRT:_initsect_.obj
 0002:00000d98       __rtc_tzz                  000000018003dd98     MSVCRT:_initsect_.obj
 0002:000015d8       __IMPORT_DESCRIPTOR_libmx  000000018003e5d8     libmx:libmx.dll
 0002:000015ec       __IMPORT_DESCRIPTOR_libmex 000000018003e5ec     libmex:libmex.dll
 0002:00001600       __IMPORT_DESCRIPTOR_libmwmathutil 000000018003e600     libmwmathutil:libmwmathutil.dll
 0002:00001614       __IMPORT_DESCRIPTOR_libemlrt 000000018003e614     libemlrt:libemlrt.dll
 0002:00001628       __IMPORT_DESCRIPTOR_libcgxert 000000018003e628     libcgxert:libcgxert.dll
 0002:0000163c       __IMPORT_DESCRIPTOR_MSVCR100 000000018003e63c     MSVCRT:MSVCR100.dll
 0002:00001650       __IMPORT_DESCRIPTOR_KERNEL32 000000018003e650     kernel32:KERNEL32.dll
 0002:00001664       __NULL_IMPORT_DESCRIPTOR   000000018003e664     libmx:libmx.dll
 0003:00000000       emlrtContextGlobal         0000000180040000     DDA2D_OSU3Dv2_cgxe.obj
 0003:000176c0       DYNAMIC_DIMENSION          00000001800576c0     DDA2D_OSU3Dv2_cgxe_registry.obj
 0003:000182e0       __security_cookie          00000001800582e0     MSVCRT:gs_cookie.obj
 0003:000182e8       __security_cookie_complement 00000001800582e8     MSVCRT:gs_cookie.obj
 0003:000182f0       _fltused                   00000001800582f0     MSVCRT:dllsupp.obj
 0003:000182f4       __native_dllmain_reason    00000001800582f4     MSVCRT:natstart.obj
 0003:000182f8       __native_vcclrit_reason    00000001800582f8     MSVCRT:natstart.obj
 0003:00018308       emlrtRootTLSGlobal         0000000180058308     DDA2D_OSU3Dv2_cgxe.obj
 0003:00018990       ?__type_info_root_node@@3U__type_info_node@@A 0000000180058990     MSVCRT:tncleanup.obj
 0003:000189a0       cgxeRtErrBuf               00000001800589a0     <common>
 0003:000199a0       __native_startup_state     00000001800599a0     <common>
 0003:000199a8       __native_startup_lock      00000001800599a8     <common>
 0003:000199b0       __onexitend                00000001800599b0     <common>
 0003:000199b8       __onexitbegin              00000001800599b8     <common>
 0003:000199c0       __dyn_tls_init_callback    00000001800599c0     <common>

 entry point at        0001:0003b524

 Static symbols

 0001:00000240       getSimState_KVvGQhP9zVmL5NQhzh0cxF 0000000180001240 f   m_KVvGQhP9zVmL5NQhzh0cxF.obj
 0001:00000310       mw__internal__getSimState__fcn 0000000180001310 f   m_KVvGQhP9zVmL5NQhzh0cxF.obj
 0001:000025d0       c_emlrt_marshallOut        00000001800035d0 f   m_KVvGQhP9zVmL5NQhzh0cxF.obj
 0001:00005ca0       setSimState_KVvGQhP9zVmL5NQhzh0cxF 0000000180006ca0 f   m_KVvGQhP9zVmL5NQhzh0cxF.obj
 0001:00005d80       mw__internal__setSimState__fcn 0000000180006d80 f   m_KVvGQhP9zVmL5NQhzh0cxF.obj
 0001:00005e40       emlrt_marshallIn           0000000180006e40 f   m_KVvGQhP9zVmL5NQhzh0cxF.obj
 0001:00005ea0       b_emlrt_marshallIn         0000000180006ea0 f   m_KVvGQhP9zVmL5NQhzh0cxF.obj
 0001:00007a90       c_emlrt_marshallIn         0000000180008a90 f   m_KVvGQhP9zVmL5NQhzh0cxF.obj
 0001:00007ae0       d_emlrt_marshallIn         0000000180008ae0 f   m_KVvGQhP9zVmL5NQhzh0cxF.obj
 0001:00007b30       e_emlrt_marshallIn         0000000180008b30 f   m_KVvGQhP9zVmL5NQhzh0cxF.obj
 0001:00007b80       f_emlrt_marshallIn         0000000180008b80 f   m_KVvGQhP9zVmL5NQhzh0cxF.obj
 0001:00007bd0       g_emlrt_marshallIn         0000000180008bd0 f   m_KVvGQhP9zVmL5NQhzh0cxF.obj
 0001:00008530       h_emlrt_marshallIn         0000000180009530 f   m_KVvGQhP9zVmL5NQhzh0cxF.obj
 0001:00008850       i_emlrt_marshallIn         0000000180009850 f   m_KVvGQhP9zVmL5NQhzh0cxF.obj
 0001:000088f0       j_emlrt_marshallIn         00000001800098f0 f   m_KVvGQhP9zVmL5NQhzh0cxF.obj
 0001:00008940       k_emlrt_marshallIn         0000000180009940 f   m_KVvGQhP9zVmL5NQhzh0cxF.obj
 0001:000089a0       l_emlrt_marshallIn         00000001800099a0 f   m_KVvGQhP9zVmL5NQhzh0cxF.obj
 0001:00008a10       m_emlrt_marshallIn         0000000180009a10 f   m_KVvGQhP9zVmL5NQhzh0cxF.obj
 0001:00008ae0       n_emlrt_marshallIn         0000000180009ae0 f   m_KVvGQhP9zVmL5NQhzh0cxF.obj
 0001:00008bb0       o_emlrt_marshallIn         0000000180009bb0 f   m_KVvGQhP9zVmL5NQhzh0cxF.obj
 0001:00008c20       p_emlrt_marshallIn         0000000180009c20 f   m_KVvGQhP9zVmL5NQhzh0cxF.obj
 0001:00008cd0       mdlStart_KVvGQhP9zVmL5NQhzh0cxF 0000000180009cd0 f   m_KVvGQhP9zVmL5NQhzh0cxF.obj
 0001:00008e50       cgxe_mdl_start             0000000180009e50 f   m_KVvGQhP9zVmL5NQhzh0cxF.obj
 0001:0000a760       SystemProp_matlabCodegenNotifyAnyProp 000000018000b760 f   m_KVvGQhP9zVmL5NQhzh0cxF.obj
 0001:0000a7c0       b_SystemProp_matlabCodegenNotifyAnyProp 000000018000b7c0 f   m_KVvGQhP9zVmL5NQhzh0cxF.obj
 0001:0000a820       c_SystemProp_matlabCodegenNotifyAnyProp 000000018000b820 f   m_KVvGQhP9zVmL5NQhzh0cxF.obj
 0001:0000a880       d_SystemProp_matlabCodegenNotifyAnyProp 000000018000b880 f   m_KVvGQhP9zVmL5NQhzh0cxF.obj
 0001:0000a8e0       e_SystemProp_matlabCodegenNotifyAnyProp 000000018000b8e0 f   m_KVvGQhP9zVmL5NQhzh0cxF.obj
 0001:0000a940       f_SystemProp_matlabCodegenNotifyAnyProp 000000018000b940 f   m_KVvGQhP9zVmL5NQhzh0cxF.obj
 0001:0000a9a0       g_SystemProp_matlabCodegenNotifyAnyProp 000000018000b9a0 f   m_KVvGQhP9zVmL5NQhzh0cxF.obj
 0001:0000aa00       h_SystemProp_matlabCodegenNotifyAnyProp 000000018000ba00 f   m_KVvGQhP9zVmL5NQhzh0cxF.obj
 0001:0000aa60       i_SystemProp_matlabCodegenNotifyAnyProp 000000018000ba60 f   m_KVvGQhP9zVmL5NQhzh0cxF.obj
 0001:0000aac0       j_SystemProp_matlabCodegenNotifyAnyProp 000000018000bac0 f   m_KVvGQhP9zVmL5NQhzh0cxF.obj
 0001:0000ab20       k_SystemProp_matlabCodegenNotifyAnyProp 000000018000bb20 f   m_KVvGQhP9zVmL5NQhzh0cxF.obj
 0001:0000ab80       l_SystemProp_matlabCodegenNotifyAnyProp 000000018000bb80 f   m_KVvGQhP9zVmL5NQhzh0cxF.obj
 0001:0000abe0       m_SystemProp_matlabCodegenNotifyAnyProp 000000018000bbe0 f   m_KVvGQhP9zVmL5NQhzh0cxF.obj
 0001:0000ac40       n_SystemProp_matlabCodegenNotifyAnyProp 000000018000bc40 f   m_KVvGQhP9zVmL5NQhzh0cxF.obj
 0001:0000aca0       o_SystemProp_matlabCodegenNotifyAnyProp 000000018000bca0 f   m_KVvGQhP9zVmL5NQhzh0cxF.obj
 0001:0000ad00       p_SystemProp_matlabCodegenNotifyAnyProp 000000018000bd00 f   m_KVvGQhP9zVmL5NQhzh0cxF.obj
 0001:0000ad60       SystemCore_setup           000000018000bd60 f   m_KVvGQhP9zVmL5NQhzh0cxF.obj
 0001:0000b730       MikhailController_MARLO_Steeringv2_userSetup 000000018000c730 f   m_KVvGQhP9zVmL5NQhzh0cxF.obj
 0001:0000b950       message                    000000018000c950 f   m_KVvGQhP9zVmL5NQhzh0cxF.obj
 0001:0000b9d0       error                      000000018000c9d0 f   m_KVvGQhP9zVmL5NQhzh0cxF.obj
 0001:0000ba30       mdlOutputs_KVvGQhP9zVmL5NQhzh0cxF 000000018000ca30 f   m_KVvGQhP9zVmL5NQhzh0cxF.obj
 0001:0000bb00       cgxe_mdl_outputs           000000018000cb00 f   m_KVvGQhP9zVmL5NQhzh0cxF.obj
 0001:0000cbe0       mw__internal__system___fcn 000000018000dbe0 f   m_KVvGQhP9zVmL5NQhzh0cxF.obj
 0001:0000ea80       q_SystemProp_matlabCodegenNotifyAnyProp 000000018000fa80 f   m_KVvGQhP9zVmL5NQhzh0cxF.obj
 0001:0000eae0       r_SystemProp_matlabCodegenNotifyAnyProp 000000018000fae0 f   m_KVvGQhP9zVmL5NQhzh0cxF.obj
 0001:0000eb40       s_SystemProp_matlabCodegenNotifyAnyProp 000000018000fb40 f   m_KVvGQhP9zVmL5NQhzh0cxF.obj
 0001:0000eba0       t_SystemProp_matlabCodegenNotifyAnyProp 000000018000fba0 f   m_KVvGQhP9zVmL5NQhzh0cxF.obj
 0001:0000ec00       u_SystemProp_matlabCodegenNotifyAnyProp 000000018000fc00 f   m_KVvGQhP9zVmL5NQhzh0cxF.obj
 0001:0000ec60       v_SystemProp_matlabCodegenNotifyAnyProp 000000018000fc60 f   m_KVvGQhP9zVmL5NQhzh0cxF.obj
 0001:0000ecc0       w_SystemProp_matlabCodegenNotifyAnyProp 000000018000fcc0 f   m_KVvGQhP9zVmL5NQhzh0cxF.obj
 0001:0000ed20       x_SystemProp_matlabCodegenNotifyAnyProp 000000018000fd20 f   m_KVvGQhP9zVmL5NQhzh0cxF.obj
 0001:0000ed80       y_SystemProp_matlabCodegenNotifyAnyProp 000000018000fd80 f   m_KVvGQhP9zVmL5NQhzh0cxF.obj
 0001:0000ede0       ab_SystemProp_matlabCodegenNotifyAnyProp 000000018000fde0 f   m_KVvGQhP9zVmL5NQhzh0cxF.obj
 0001:0000ee40       bb_SystemProp_matlabCodegenNotifyAnyProp 000000018000fe40 f   m_KVvGQhP9zVmL5NQhzh0cxF.obj
 0001:0000eea0       cb_SystemProp_matlabCodegenNotifyAnyProp 000000018000fea0 f   m_KVvGQhP9zVmL5NQhzh0cxF.obj
 0001:0000ef00       db_SystemProp_matlabCodegenNotifyAnyProp 000000018000ff00 f   m_KVvGQhP9zVmL5NQhzh0cxF.obj
 0001:0000ef60       eb_SystemProp_matlabCodegenNotifyAnyProp 000000018000ff60 f   m_KVvGQhP9zVmL5NQhzh0cxF.obj
 0001:0000efc0       fb_SystemProp_matlabCodegenNotifyAnyProp 000000018000ffc0 f   m_KVvGQhP9zVmL5NQhzh0cxF.obj
 0001:0000f020       gb_SystemProp_matlabCodegenNotifyAnyProp 0000000180010020 f   m_KVvGQhP9zVmL5NQhzh0cxF.obj
 0001:0000f080       hb_SystemProp_matlabCodegenNotifyAnyProp 0000000180010080 f   m_KVvGQhP9zVmL5NQhzh0cxF.obj
 0001:0000f0e0       ib_SystemProp_matlabCodegenNotifyAnyProp 00000001800100e0 f   m_KVvGQhP9zVmL5NQhzh0cxF.obj
 0001:0000f140       jb_SystemProp_matlabCodegenNotifyAnyProp 0000000180010140 f   m_KVvGQhP9zVmL5NQhzh0cxF.obj
 0001:0000f1a0       kb_SystemProp_matlabCodegenNotifyAnyProp 00000001800101a0 f   m_KVvGQhP9zVmL5NQhzh0cxF.obj
 0001:0000f200       lb_SystemProp_matlabCodegenNotifyAnyProp 0000000180010200 f   m_KVvGQhP9zVmL5NQhzh0cxF.obj
 0001:0000f260       mb_SystemProp_matlabCodegenNotifyAnyProp 0000000180010260 f   m_KVvGQhP9zVmL5NQhzh0cxF.obj
 0001:0000f2c0       nb_SystemProp_matlabCodegenNotifyAnyProp 00000001800102c0 f   m_KVvGQhP9zVmL5NQhzh0cxF.obj
 0001:0000f320       ob_SystemProp_matlabCodegenNotifyAnyProp 0000000180010320 f   m_KVvGQhP9zVmL5NQhzh0cxF.obj
 0001:0000f380       pb_SystemProp_matlabCodegenNotifyAnyProp 0000000180010380 f   m_KVvGQhP9zVmL5NQhzh0cxF.obj
 0001:0000f3e0       qb_SystemProp_matlabCodegenNotifyAnyProp 00000001800103e0 f   m_KVvGQhP9zVmL5NQhzh0cxF.obj
 0001:0000f440       rb_SystemProp_matlabCodegenNotifyAnyProp 0000000180010440 f   m_KVvGQhP9zVmL5NQhzh0cxF.obj
 0001:0000f4a0       sb_SystemProp_matlabCodegenNotifyAnyProp 00000001800104a0 f   m_KVvGQhP9zVmL5NQhzh0cxF.obj
 0001:0000f500       tb_SystemProp_matlabCodegenNotifyAnyProp 0000000180010500 f   m_KVvGQhP9zVmL5NQhzh0cxF.obj
 0001:0000f560       ub_SystemProp_matlabCodegenNotifyAnyProp 0000000180010560 f   m_KVvGQhP9zVmL5NQhzh0cxF.obj
 0001:0000f5c0       vb_SystemProp_matlabCodegenNotifyAnyProp 00000001800105c0 f   m_KVvGQhP9zVmL5NQhzh0cxF.obj
 0001:0000f620       wb_SystemProp_matlabCodegenNotifyAnyProp 0000000180010620 f   m_KVvGQhP9zVmL5NQhzh0cxF.obj
 0001:0000f680       xb_SystemProp_matlabCodegenNotifyAnyProp 0000000180010680 f   m_KVvGQhP9zVmL5NQhzh0cxF.obj
 0001:0000f6e0       yb_SystemProp_matlabCodegenNotifyAnyProp 00000001800106e0 f   m_KVvGQhP9zVmL5NQhzh0cxF.obj
 0001:0000f740       ac_SystemProp_matlabCodegenNotifyAnyProp 0000000180010740 f   m_KVvGQhP9zVmL5NQhzh0cxF.obj
 0001:0000f7a0       bc_SystemProp_matlabCodegenNotifyAnyProp 00000001800107a0 f   m_KVvGQhP9zVmL5NQhzh0cxF.obj
 0001:0000f800       isequal                    0000000180010800 f   m_KVvGQhP9zVmL5NQhzh0cxF.obj
 0001:0000f850       b_isequal                  0000000180010850 f   m_KVvGQhP9zVmL5NQhzh0cxF.obj
 0001:0000f8a0       SystemCore_step            00000001800108a0 f   m_KVvGQhP9zVmL5NQhzh0cxF.obj
 0001:00010430       PS3Button_update           0000000180011430 f   m_KVvGQhP9zVmL5NQhzh0cxF.obj
 0001:00010560       MikhailController_MARLO_Steeringv2_userStep 0000000180011560 f   m_KVvGQhP9zVmL5NQhzh0cxF.obj
 0001:000178c0       MikhailController_MARLO_Steeringv2_parsePS3Controller 00000001800188c0 f   m_KVvGQhP9zVmL5NQhzh0cxF.obj
 0001:00017f00       clamp                      0000000180018f00 f   m_KVvGQhP9zVmL5NQhzh0cxF.obj
 0001:00017f70       scaleFactor                0000000180018f70 f   m_KVvGQhP9zVmL5NQhzh0cxF.obj
 0001:00017ff0       cubic_interp               0000000180018ff0 f   m_KVvGQhP9zVmL5NQhzh0cxF.obj
 0001:00018100       b_cubic_interp             0000000180019100 f   m_KVvGQhP9zVmL5NQhzh0cxF.obj
 0001:00018580       mean                       0000000180019580 f   m_KVvGQhP9zVmL5NQhzh0cxF.obj
 0001:000185b0       c_cubic_interp             00000001800195b0 f   m_KVvGQhP9zVmL5NQhzh0cxF.obj
 0001:00018a60       atans                      0000000180019a60 f   m_KVvGQhP9zVmL5NQhzh0cxF.obj
 0001:00018ab0       d_cubic_interp             0000000180019ab0 f   m_KVvGQhP9zVmL5NQhzh0cxF.obj
 0001:00018cd0       b_eml_error                0000000180019cd0 f   m_KVvGQhP9zVmL5NQhzh0cxF.obj
 0001:00018e30       bezierval                  0000000180019e30 f   m_KVvGQhP9zVmL5NQhzh0cxF.obj
 0001:00019060       eml_warning                000000018001a060 f   m_KVvGQhP9zVmL5NQhzh0cxF.obj
 0001:00019130       b_message                  000000018001a130 f   m_KVvGQhP9zVmL5NQhzh0cxF.obj
 0001:000191a0       warning                    000000018001a1a0 f   m_KVvGQhP9zVmL5NQhzh0cxF.obj
 0001:00019200       b_acos                     000000018001a200 f   m_KVvGQhP9zVmL5NQhzh0cxF.obj
 0001:00019680       eml_scalar_sqrt            000000018001a680 f   m_KVvGQhP9zVmL5NQhzh0cxF.obj
 0001:00019a40       b_asin                     000000018001aa40 f   m_KVvGQhP9zVmL5NQhzh0cxF.obj
 0001:00019aa0       eml_error                  000000018001aaa0 f   m_KVvGQhP9zVmL5NQhzh0cxF.obj
 0001:00019c00       mldivide                   000000018001ac00 f   m_KVvGQhP9zVmL5NQhzh0cxF.obj
 0001:00019f70       mdlInitialize_KVvGQhP9zVmL5NQhzh0cxF 000000018001af70 f   m_KVvGQhP9zVmL5NQhzh0cxF.obj
 0001:0001a040       cgxe_mdl_initialize        000000018001b040 f   m_KVvGQhP9zVmL5NQhzh0cxF.obj
 0001:0001bcb0       mdlUpdate_KVvGQhP9zVmL5NQhzh0cxF 000000018001ccb0 f   m_KVvGQhP9zVmL5NQhzh0cxF.obj
 0001:0001bd80       cgxe_mdl_update            000000018001cd80 f   m_KVvGQhP9zVmL5NQhzh0cxF.obj
 0001:0001bd90       mdlTerminate_KVvGQhP9zVmL5NQhzh0cxF 000000018001cd90 f   m_KVvGQhP9zVmL5NQhzh0cxF.obj
 0001:0001be80       cgxe_mdl_terminate         000000018001ce80 f   m_KVvGQhP9zVmL5NQhzh0cxF.obj
 0001:0001da80       mdlProcessParameters_KVvGQhP9zVmL5NQhzh0cxF 000000018001ea80 f   m_KVvGQhP9zVmL5NQhzh0cxF.obj
 0001:0001db00       mw__internal__name__resolution__fcn 000000018001eb00 f   m_KVvGQhP9zVmL5NQhzh0cxF.obj
 0001:0001db80       info_helper                000000018001eb80 f   m_KVvGQhP9zVmL5NQhzh0cxF.obj
 0001:00022940       emlrt_marshallOut          0000000180023940 f   m_KVvGQhP9zVmL5NQhzh0cxF.obj
 0001:00022980       b_emlrt_marshallOut        0000000180023980 f   m_KVvGQhP9zVmL5NQhzh0cxF.obj
 0001:000229e0       b_info_helper              00000001800239e0 f   m_KVvGQhP9zVmL5NQhzh0cxF.obj
 0001:000277c0       c_info_helper              00000001800287c0 f   m_KVvGQhP9zVmL5NQhzh0cxF.obj
 0001:0002c5b0       d_info_helper              000000018002d5b0 f   m_KVvGQhP9zVmL5NQhzh0cxF.obj
 0001:00031390       e_info_helper              0000000180032390 f   m_KVvGQhP9zVmL5NQhzh0cxF.obj
 0001:00033a90       mw__internal__autoInference__fcn 0000000180034a90 f   m_KVvGQhP9zVmL5NQhzh0cxF.obj
 0001:00036da0       _ssFatalError              0000000180037da0 f   DDA2D_OSU3Dv2_cgxe_registry.obj
 0001:00039b40       mdlStart                   000000018003ab40 f   DDA2D_OSU3Dv2_cgxe_registry.obj
 0001:00039b80       mdlInitializeConditions    000000018003ab80 f   DDA2D_OSU3Dv2_cgxe_registry.obj
 0001:00039ba0       mdlUpdate                  000000018003aba0 f   DDA2D_OSU3Dv2_cgxe_registry.obj
 0001:00039bd0       mdlOutputs                 000000018003abd0 f   DDA2D_OSU3Dv2_cgxe_registry.obj
 0001:00039c00       mdlTerminate               000000018003ac00 f   DDA2D_OSU3Dv2_cgxe_registry.obj
 0001:00039c20       mdlInitializeSampleTimes   000000018003ac20 f   DDA2D_OSU3Dv2_cgxe_registry.obj
 0001:00039c30       ProcessMexSfunctionCmdLineCall 000000018003ac30 f   DDA2D_OSU3Dv2_cgxe_registry.obj
 0001:00039eb0       cgxe_process_get_checksums 000000018003aeb0 f   DDA2D_OSU3Dv2_cgxe_registry.obj
 0001:0003a190       cgxe_get_supported_modules 000000018003b190 f   DDA2D_OSU3Dv2_cgxe_registry.obj
 0001:0003a240       cgxe_mex_unlock_call       000000018003b240 f   DDA2D_OSU3Dv2_cgxe_registry.obj
 0001:0003a280       cgxe_get_sim_state         000000018003b280 f   DDA2D_OSU3Dv2_cgxe_registry.obj
 0001:0003a2f0       cgxe_unpack_simstruct      000000018003b2f0 f   DDA2D_OSU3Dv2_cgxe_registry.obj
 0001:0003a390       cgxe_set_sim_state         000000018003b390 f   DDA2D_OSU3Dv2_cgxe_registry.obj
 0001:0003a400       cgxe_get_BuildInfoUpdate   000000018003b400 f   DDA2D_OSU3Dv2_cgxe_registry.obj
 0001:0003a4a0       mdlZeroCrossings           000000018003b4a0 f   DDA2D_OSU3Dv2_cgxe_registry.obj
 0001:0003a4f0       mdlGetTimeOfNextVarHit     000000018003b4f0 f   DDA2D_OSU3Dv2_cgxe_registry.obj
 0001:0003a540       _ProcessMexSfunctionCmdLineCall 000000018003b540 f   DDA2D_OSU3Dv2_cgxe_registry.obj
 0001:0003abf0       mdlInitializeSizes         000000018003bbf0 f   DDA2D_OSU3Dv2_cgxe_registry.obj
 0001:0003ac00       _CreateSimStruct           000000018003bc00 f   DDA2D_OSU3Dv2_cgxe_registry.obj
 0001:0003ad90       _RegNumInputPortsCB        000000018003bd90 f   DDA2D_OSU3Dv2_cgxe_registry.obj
 0001:0003ae10       _RegNumOutputPortsCB       000000018003be10 f   DDA2D_OSU3Dv2_cgxe_registry.obj
 0001:0003b12c       pre_c_init                 000000018003c12c f   MSVCRT:crtdll.obj
 0001:0003b3e8       __DllMainCRTStartup        000000018003c3e8 f   MSVCRT:crtdll.obj
 0001:0003ba50       __DllMainCRTStartup$filt$0 000000018003ca50 f   MSVCRT:crtdll.obj
 0001:0003ba80       __DllMainCRTStartup$fin$1  000000018003ca80 f   MSVCRT:crtdll.obj
 0001:0003ba9a       _onexit$fin$0              000000018003ca9a f   MSVCRT:atonexit.obj
 0001:0003bac0       _IsNonwritableInCurrentImage$filt$0 000000018003cac0 f   MSVCRT:pesect.obj
